ARM GAS  C:\Users\Svilen\AppData\Local\Temp\ccj4G4Lh.s 			page 1


   1              		.cpu cortex-m0
   2              		.fpu softvfp
   3              		.eabi_attribute 20, 1
   4              		.eabi_attribute 21, 1
   5              		.eabi_attribute 23, 3
   6              		.eabi_attribute 24, 1
   7              		.eabi_attribute 25, 1
   8              		.eabi_attribute 26, 1
   9              		.eabi_attribute 30, 1
  10              		.eabi_attribute 34, 0
  11              		.eabi_attribute 18, 4
  12              		.code	16
  13              		.file	"ADC.c"
  14              		.text
  15              	.Ltext0:
  16              		.cfi_sections	.debug_frame
  17              		.global	__aeabi_idiv
  18              		.section	.text.ADC_Init,"ax",%progbits
  19              		.align	2
  20              		.global	ADC_Init
  21              		.code	16
  22              		.thumb_func
  23              		.type	ADC_Init, %function
  24              	ADC_Init:
  25              	.LFB1:
  26              		.file 1 ".\\Generated_Source\\PSoC4\\ADC.c"
   1:.\Generated_Source\PSoC4/ADC.c **** /*******************************************************************************
   2:.\Generated_Source\PSoC4/ADC.c **** * File Name: ADC.c
   3:.\Generated_Source\PSoC4/ADC.c **** * Version 2.40
   4:.\Generated_Source\PSoC4/ADC.c **** *
   5:.\Generated_Source\PSoC4/ADC.c **** * Description:
   6:.\Generated_Source\PSoC4/ADC.c **** *  This file provides the source code to the API for the Sequencing Successive
   7:.\Generated_Source\PSoC4/ADC.c **** *  Approximation ADC Component Component.
   8:.\Generated_Source\PSoC4/ADC.c **** *
   9:.\Generated_Source\PSoC4/ADC.c **** * Note:
  10:.\Generated_Source\PSoC4/ADC.c **** *
  11:.\Generated_Source\PSoC4/ADC.c **** ********************************************************************************
  12:.\Generated_Source\PSoC4/ADC.c **** * Copyright 2008-2015, Cypress Semiconductor Corporation.  All rights reserved.
  13:.\Generated_Source\PSoC4/ADC.c **** * You may use this file only in accordance with the license, terms, conditions,
  14:.\Generated_Source\PSoC4/ADC.c **** * disclaimers, and limitations in the end user license agreement accompanying
  15:.\Generated_Source\PSoC4/ADC.c **** * the software package with which this file was provided.
  16:.\Generated_Source\PSoC4/ADC.c **** *******************************************************************************/
  17:.\Generated_Source\PSoC4/ADC.c **** 
  18:.\Generated_Source\PSoC4/ADC.c **** #include "ADC.h"
  19:.\Generated_Source\PSoC4/ADC.c **** 
  20:.\Generated_Source\PSoC4/ADC.c **** 
  21:.\Generated_Source\PSoC4/ADC.c **** /***************************************
  22:.\Generated_Source\PSoC4/ADC.c **** * Global data allocation
  23:.\Generated_Source\PSoC4/ADC.c **** ***************************************/
  24:.\Generated_Source\PSoC4/ADC.c **** uint8 ADC_initVar = 0u;
  25:.\Generated_Source\PSoC4/ADC.c **** volatile int16 ADC_offset[ADC_TOTAL_CHANNELS_NUM];
  26:.\Generated_Source\PSoC4/ADC.c **** volatile int32 ADC_countsPer10Volt[ADC_TOTAL_CHANNELS_NUM];   /* Gain compensation */
  27:.\Generated_Source\PSoC4/ADC.c **** 
  28:.\Generated_Source\PSoC4/ADC.c **** 
  29:.\Generated_Source\PSoC4/ADC.c **** /***************************************
  30:.\Generated_Source\PSoC4/ADC.c **** * Local data allocation
  31:.\Generated_Source\PSoC4/ADC.c **** ***************************************/
ARM GAS  C:\Users\Svilen\AppData\Local\Temp\ccj4G4Lh.s 			page 2


  32:.\Generated_Source\PSoC4/ADC.c **** /* Channels configuration generated by customiser */
  33:.\Generated_Source\PSoC4/ADC.c **** static const uint32 CYCODE ADC_channelsConfig[] = { 0x00000400u, 0x00000400u };
  34:.\Generated_Source\PSoC4/ADC.c **** 
  35:.\Generated_Source\PSoC4/ADC.c **** 
  36:.\Generated_Source\PSoC4/ADC.c **** /*******************************************************************************
  37:.\Generated_Source\PSoC4/ADC.c **** * Function Name: ADC_Start
  38:.\Generated_Source\PSoC4/ADC.c **** ********************************************************************************
  39:.\Generated_Source\PSoC4/ADC.c **** *
  40:.\Generated_Source\PSoC4/ADC.c **** * Summary:
  41:.\Generated_Source\PSoC4/ADC.c **** *  Performs all required initialization for this component
  42:.\Generated_Source\PSoC4/ADC.c **** *  and enables the power. The power will be set to the appropriate
  43:.\Generated_Source\PSoC4/ADC.c **** *  power based on the clock frequency.
  44:.\Generated_Source\PSoC4/ADC.c **** *
  45:.\Generated_Source\PSoC4/ADC.c **** * Parameters:
  46:.\Generated_Source\PSoC4/ADC.c **** *  None.
  47:.\Generated_Source\PSoC4/ADC.c **** *
  48:.\Generated_Source\PSoC4/ADC.c **** * Return:
  49:.\Generated_Source\PSoC4/ADC.c **** *  None.
  50:.\Generated_Source\PSoC4/ADC.c **** *
  51:.\Generated_Source\PSoC4/ADC.c **** * Global variables:
  52:.\Generated_Source\PSoC4/ADC.c **** *  The ADC_initVar variable is used to indicate when/if initial
  53:.\Generated_Source\PSoC4/ADC.c **** *  configuration of this component has happened. The variable is initialized to
  54:.\Generated_Source\PSoC4/ADC.c **** *  zero and set to 1 the first time ADC_Start() is called. This allows for
  55:.\Generated_Source\PSoC4/ADC.c **** *  component Re-Start without re-initialization in all subsequent calls to the
  56:.\Generated_Source\PSoC4/ADC.c **** *  ADC_Start() routine.
  57:.\Generated_Source\PSoC4/ADC.c **** *  If re-initialization of the component is required the variable should be set
  58:.\Generated_Source\PSoC4/ADC.c **** *  to zero before call of ADC_Start() routine, or the user may call
  59:.\Generated_Source\PSoC4/ADC.c **** *  ADC_Init() and ADC_Enable() as done in the
  60:.\Generated_Source\PSoC4/ADC.c **** *  ADC_Start() routine.
  61:.\Generated_Source\PSoC4/ADC.c **** *
  62:.\Generated_Source\PSoC4/ADC.c **** *******************************************************************************/
  63:.\Generated_Source\PSoC4/ADC.c **** void ADC_Start(void)
  64:.\Generated_Source\PSoC4/ADC.c **** {
  65:.\Generated_Source\PSoC4/ADC.c ****     /* If not Initialized then initialize all required hardware and software */
  66:.\Generated_Source\PSoC4/ADC.c ****     if(ADC_initVar == 0u)
  67:.\Generated_Source\PSoC4/ADC.c ****     {
  68:.\Generated_Source\PSoC4/ADC.c ****         ADC_Init();
  69:.\Generated_Source\PSoC4/ADC.c ****         ADC_initVar = 1u;
  70:.\Generated_Source\PSoC4/ADC.c ****     }
  71:.\Generated_Source\PSoC4/ADC.c ****     ADC_Enable();
  72:.\Generated_Source\PSoC4/ADC.c **** }
  73:.\Generated_Source\PSoC4/ADC.c **** 
  74:.\Generated_Source\PSoC4/ADC.c **** 
  75:.\Generated_Source\PSoC4/ADC.c **** /*******************************************************************************
  76:.\Generated_Source\PSoC4/ADC.c **** * Function Name: ADC_Init
  77:.\Generated_Source\PSoC4/ADC.c **** ********************************************************************************
  78:.\Generated_Source\PSoC4/ADC.c **** *
  79:.\Generated_Source\PSoC4/ADC.c **** * Summary:
  80:.\Generated_Source\PSoC4/ADC.c **** *  Initialize component's parameters to the parameters set by user in the
  81:.\Generated_Source\PSoC4/ADC.c **** *  customizer of the component placed onto schematic. Usually called in
  82:.\Generated_Source\PSoC4/ADC.c **** *  ADC_Start().
  83:.\Generated_Source\PSoC4/ADC.c **** *
  84:.\Generated_Source\PSoC4/ADC.c **** * Parameters:
  85:.\Generated_Source\PSoC4/ADC.c **** *  None.
  86:.\Generated_Source\PSoC4/ADC.c **** *
  87:.\Generated_Source\PSoC4/ADC.c **** * Return:
  88:.\Generated_Source\PSoC4/ADC.c **** *  None.
ARM GAS  C:\Users\Svilen\AppData\Local\Temp\ccj4G4Lh.s 			page 3


  89:.\Generated_Source\PSoC4/ADC.c **** *
  90:.\Generated_Source\PSoC4/ADC.c **** * Global variables:
  91:.\Generated_Source\PSoC4/ADC.c **** *  The ADC_offset variable is initialized.
  92:.\Generated_Source\PSoC4/ADC.c **** *
  93:.\Generated_Source\PSoC4/ADC.c **** *******************************************************************************/
  94:.\Generated_Source\PSoC4/ADC.c **** void ADC_Init(void)
  95:.\Generated_Source\PSoC4/ADC.c **** {
  27              		.loc 1 95 0
  28              		.cfi_startproc
  29 0000 10B5     		push	{r4, lr}
  30              		.cfi_def_cfa_offset 8
  31              		.cfi_offset 4, -8
  32              		.cfi_offset 14, -4
  96:.\Generated_Source\PSoC4/ADC.c ****     uint32 chNum;
  97:.\Generated_Source\PSoC4/ADC.c ****     uint32 tmpRegVal;
  98:.\Generated_Source\PSoC4/ADC.c ****     int32 counts;
  99:.\Generated_Source\PSoC4/ADC.c **** 
 100:.\Generated_Source\PSoC4/ADC.c ****     #if(ADC_TOTAL_CHANNELS_NUM > 1u)
 101:.\Generated_Source\PSoC4/ADC.c ****         static const uint8 CYCODE ADC_InputsPlacement[] =
 102:.\Generated_Source\PSoC4/ADC.c ****         {
 103:.\Generated_Source\PSoC4/ADC.c ****             (uint8)(ADC_cy_psoc4_sarmux_8__CH_0_PORT << 4u) |
 104:.\Generated_Source\PSoC4/ADC.c ****             (uint8)ADC_cy_psoc4_sarmux_8__CH_0_PIN
 105:.\Generated_Source\PSoC4/ADC.c ****             ,(uint8)(ADC_cy_psoc4_sarmux_8__CH_1_PORT << 4u) |
 106:.\Generated_Source\PSoC4/ADC.c ****              (uint8)ADC_cy_psoc4_sarmux_8__CH_1_PIN
 107:.\Generated_Source\PSoC4/ADC.c ****             #if(ADC_TOTAL_CHANNELS_NUM > 2u)
 108:.\Generated_Source\PSoC4/ADC.c ****                 ,(uint8)(ADC_cy_psoc4_sarmux_8__CH_2_PORT << 4u) |
 109:.\Generated_Source\PSoC4/ADC.c ****                  (uint8)ADC_cy_psoc4_sarmux_8__CH_2_PIN
 110:.\Generated_Source\PSoC4/ADC.c ****             #endif /* End ADC_TOTAL_CHANNELS_NUM > 2u */
 111:.\Generated_Source\PSoC4/ADC.c ****             #if(ADC_TOTAL_CHANNELS_NUM > 3u)
 112:.\Generated_Source\PSoC4/ADC.c ****                 ,(uint8)(ADC_cy_psoc4_sarmux_8__CH_3_PORT << 4u) |
 113:.\Generated_Source\PSoC4/ADC.c ****                  (uint8)ADC_cy_psoc4_sarmux_8__CH_3_PIN
 114:.\Generated_Source\PSoC4/ADC.c ****             #endif /* End ADC_TOTAL_CHANNELS_NUM > 3u */
 115:.\Generated_Source\PSoC4/ADC.c ****             #if(ADC_TOTAL_CHANNELS_NUM > 4u)
 116:.\Generated_Source\PSoC4/ADC.c ****                 ,(uint8)(ADC_cy_psoc4_sarmux_8__CH_4_PORT << 4u) |
 117:.\Generated_Source\PSoC4/ADC.c ****                  (uint8)ADC_cy_psoc4_sarmux_8__CH_4_PIN
 118:.\Generated_Source\PSoC4/ADC.c ****             #endif /* End ADC_TOTAL_CHANNELS_NUM > 4u */
 119:.\Generated_Source\PSoC4/ADC.c ****             #if(ADC_TOTAL_CHANNELS_NUM > 5u)
 120:.\Generated_Source\PSoC4/ADC.c ****                 ,(uint8)(ADC_cy_psoc4_sarmux_8__CH_5_PORT << 4u) |
 121:.\Generated_Source\PSoC4/ADC.c ****                  (uint8)ADC_cy_psoc4_sarmux_8__CH_5_PIN
 122:.\Generated_Source\PSoC4/ADC.c ****             #endif /* End ADC_TOTAL_CHANNELS_NUM > 5u */
 123:.\Generated_Source\PSoC4/ADC.c ****             #if(ADC_TOTAL_CHANNELS_NUM > 6u)
 124:.\Generated_Source\PSoC4/ADC.c ****                 ,(uint8)(ADC_cy_psoc4_sarmux_8__CH_6_PORT << 4u) |
 125:.\Generated_Source\PSoC4/ADC.c ****                  (uint8)ADC_cy_psoc4_sarmux_8__CH_6_PIN
 126:.\Generated_Source\PSoC4/ADC.c ****             #endif /* End ADC_TOTAL_CHANNELS_NUM > 6u */
 127:.\Generated_Source\PSoC4/ADC.c ****             #if(ADC_TOTAL_CHANNELS_NUM > 7u)
 128:.\Generated_Source\PSoC4/ADC.c ****                 ,(uint8)(ADC_cy_psoc4_sarmux_8__CH_7_PORT << 4u) |
 129:.\Generated_Source\PSoC4/ADC.c ****                  (uint8)ADC_cy_psoc4_sarmux_8__CH_7_PIN
 130:.\Generated_Source\PSoC4/ADC.c ****             #endif /* End ADC_TOTAL_CHANNELS_NUM > 7u */
 131:.\Generated_Source\PSoC4/ADC.c ****             #if(ADC_TOTAL_CHANNELS_NUM > 8u)
 132:.\Generated_Source\PSoC4/ADC.c ****                 ,(uint8)(ADC_cy_psoc4_sarmux_8__CH_8_PORT << 4u) |
 133:.\Generated_Source\PSoC4/ADC.c ****                  (uint8)ADC_cy_psoc4_sarmux_8__CH_8_PIN
 134:.\Generated_Source\PSoC4/ADC.c ****             #endif /* End ADC_TOTAL_CHANNELS_NUM > 8u */
 135:.\Generated_Source\PSoC4/ADC.c ****             #if(ADC_TOTAL_CHANNELS_NUM > 9u)
 136:.\Generated_Source\PSoC4/ADC.c ****                 ,(uint8)(ADC_cy_psoc4_sarmux_8__CH_9_PORT << 4u) |
 137:.\Generated_Source\PSoC4/ADC.c ****                  (uint8)ADC_cy_psoc4_sarmux_8__CH_9_PIN
 138:.\Generated_Source\PSoC4/ADC.c ****             #endif /* End ADC_TOTAL_CHANNELS_NUM > 9u */
 139:.\Generated_Source\PSoC4/ADC.c ****             #if(ADC_TOTAL_CHANNELS_NUM > 10u)
ARM GAS  C:\Users\Svilen\AppData\Local\Temp\ccj4G4Lh.s 			page 4


 140:.\Generated_Source\PSoC4/ADC.c ****                 ,(uint8)(ADC_cy_psoc4_sarmux_8__CH_10_PORT << 4u) |
 141:.\Generated_Source\PSoC4/ADC.c ****                  (uint8)ADC_cy_psoc4_sarmux_8__CH_10_PIN
 142:.\Generated_Source\PSoC4/ADC.c ****             #endif /* End ADC_TOTAL_CHANNELS_NUM > 10u */
 143:.\Generated_Source\PSoC4/ADC.c ****             #if(ADC_TOTAL_CHANNELS_NUM > 11u)
 144:.\Generated_Source\PSoC4/ADC.c ****                 ,(uint8)(ADC_cy_psoc4_sarmux_8__CH_11_PORT << 4u) |
 145:.\Generated_Source\PSoC4/ADC.c ****                  (uint8)ADC_cy_psoc4_sarmux_8__CH_11_PIN
 146:.\Generated_Source\PSoC4/ADC.c ****             #endif /* End ADC_TOTAL_CHANNELS_NUM > 11u */
 147:.\Generated_Source\PSoC4/ADC.c ****             #if(ADC_TOTAL_CHANNELS_NUM > 12u)
 148:.\Generated_Source\PSoC4/ADC.c ****                 ,(uint8)(ADC_cy_psoc4_sarmux_8__CH_12_PORT << 4u) |
 149:.\Generated_Source\PSoC4/ADC.c ****                  (uint8)ADC_cy_psoc4_sarmux_8__CH_12_PIN
 150:.\Generated_Source\PSoC4/ADC.c ****             #endif /* End ADC_TOTAL_CHANNELS_NUM > 12u */
 151:.\Generated_Source\PSoC4/ADC.c ****             #if(ADC_TOTAL_CHANNELS_NUM > 13u)
 152:.\Generated_Source\PSoC4/ADC.c ****                 ,(uint8)(ADC_cy_psoc4_sarmux_8__CH_13_PORT << 4u) |
 153:.\Generated_Source\PSoC4/ADC.c ****                  (uint8)ADC_cy_psoc4_sarmux_8__CH_13_PIN
 154:.\Generated_Source\PSoC4/ADC.c ****             #endif /* End ADC_TOTAL_CHANNELS_NUM > 13u */
 155:.\Generated_Source\PSoC4/ADC.c ****             #if(ADC_TOTAL_CHANNELS_NUM > 14u)
 156:.\Generated_Source\PSoC4/ADC.c ****                 ,(uint8)(ADC_cy_psoc4_sarmux_8__CH_14_PORT << 4u) |
 157:.\Generated_Source\PSoC4/ADC.c ****                  (uint8)ADC_cy_psoc4_sarmux_8__CH_14_PIN
 158:.\Generated_Source\PSoC4/ADC.c ****             #endif /* End ADC_TOTAL_CHANNELS_NUM > 14u */
 159:.\Generated_Source\PSoC4/ADC.c ****             #if(ADC_TOTAL_CHANNELS_NUM > 15u)
 160:.\Generated_Source\PSoC4/ADC.c ****                 ,(uint8)(ADC_cy_psoc4_sarmux_8__CH_15_PORT << 4u) |
 161:.\Generated_Source\PSoC4/ADC.c ****                  (uint8)ADC_cy_psoc4_sarmux_8__CH_15_PIN
 162:.\Generated_Source\PSoC4/ADC.c ****             #endif /* End ADC_TOTAL_CHANNELS_NUM > 15u */
 163:.\Generated_Source\PSoC4/ADC.c ****             #if(ADC_TOTAL_CHANNELS_NUM > 16u)
 164:.\Generated_Source\PSoC4/ADC.c ****                 ,(uint8)(ADC_cy_psoc4_sarmux_8__CH_16_PORT << 4u) |
 165:.\Generated_Source\PSoC4/ADC.c ****                  (uint8)ADC_cy_psoc4_sarmux_8__CH_16_PIN
 166:.\Generated_Source\PSoC4/ADC.c ****             #endif /* End ADC_TOTAL_CHANNELS_NUM > 16u */
 167:.\Generated_Source\PSoC4/ADC.c ****         };
 168:.\Generated_Source\PSoC4/ADC.c ****     #endif /* End ADC_TOTAL_CHANNELS_NUM > 1u */
 169:.\Generated_Source\PSoC4/ADC.c **** 
 170:.\Generated_Source\PSoC4/ADC.c ****     #if(ADC_IRQ_REMOVE == 0u)
 171:.\Generated_Source\PSoC4/ADC.c ****         /* Start and set interrupt vector */
 172:.\Generated_Source\PSoC4/ADC.c ****         CyIntSetPriority(ADC_INTC_NUMBER, ADC_INTC_PRIOR_NUMBER);
  33              		.loc 1 172 0
  34 0002 0E20     		mov	r0, #14
  35 0004 0321     		mov	r1, #3
  36 0006 FFF7FEFF 		bl	CyIntSetPriority
  37              	.LVL0:
 173:.\Generated_Source\PSoC4/ADC.c ****         (void)CyIntSetVector(ADC_INTC_NUMBER, &ADC_ISR);
  38              		.loc 1 173 0
  39 000a 0E20     		mov	r0, #14
  40 000c 4249     		ldr	r1, .L12
  41 000e FFF7FEFF 		bl	CyIntSetVector
  42              	.LVL1:
 174:.\Generated_Source\PSoC4/ADC.c ****     #endif   /* End ADC_IRQ_REMOVE */
 175:.\Generated_Source\PSoC4/ADC.c **** 
 176:.\Generated_Source\PSoC4/ADC.c ****     /* Init SAR and MUX registers */
 177:.\Generated_Source\PSoC4/ADC.c ****     ADC_SAR_CHAN_EN_REG = ADC_DEFAULT_EN_CHANNELS;
  43              		.loc 1 177 0
  44 0012 0322     		mov	r2, #3
  45 0014 414B     		ldr	r3, .L12+4
  46 0016 1A60     		str	r2, [r3]
 178:.\Generated_Source\PSoC4/ADC.c ****     ADC_SAR_CTRL_REG |= ADC_DEFAULT_CTRL_REG_CFG | 
 179:.\Generated_Source\PSoC4/ADC.c ****         /* Enable the SAR internal pump when global pump is enabled */
 180:.\Generated_Source\PSoC4/ADC.c ****         (((ADC_PUMP_CTRL_REG & ADC_PUMP_CTRL_ENABLED) != 0u) ? 
  47              		.loc 1 180 0
  48 0018 414B     		ldr	r3, .L12+8
ARM GAS  C:\Users\Svilen\AppData\Local\Temp\ccj4G4Lh.s 			page 5


  49 001a 1B68     		ldr	r3, [r3]
 178:.\Generated_Source\PSoC4/ADC.c ****     ADC_SAR_CTRL_REG |= ADC_DEFAULT_CTRL_REG_CFG | 
  50              		.loc 1 178 0
  51 001c 002B     		cmp	r3, #0
  52 001e 01DA     		bge	.L10
  53 0020 4049     		ldr	r1, .L12+12
  54 0022 00E0     		b	.L2
  55              	.L10:
  56 0024 4049     		ldr	r1, .L12+16
  57              	.L2:
 178:.\Generated_Source\PSoC4/ADC.c ****     ADC_SAR_CTRL_REG |= ADC_DEFAULT_CTRL_REG_CFG | 
  58              		.loc 1 178 0 is_stmt 0 discriminator 4
  59 0026 414A     		ldr	r2, .L12+20
  60 0028 1368     		ldr	r3, [r2]
  61 002a 0B43     		orr	r3, r1
  62 002c 1360     		str	r3, [r2]
 181:.\Generated_Source\PSoC4/ADC.c ****         ADC_BOOSTPUMP_EN : 0u);
 182:.\Generated_Source\PSoC4/ADC.c ****     ADC_SAR_SAMPLE_CTRL_REG = ADC_DEFAULT_SAMPLE_CTRL_REG_CFG;
  63              		.loc 1 182 0 is_stmt 1 discriminator 4
  64 002e 404A     		ldr	r2, .L12+24
  65 0030 404B     		ldr	r3, .L12+28
  66 0032 1A60     		str	r2, [r3]
 183:.\Generated_Source\PSoC4/ADC.c ****     ADC_SAR_RANGE_THRES_REG = ADC_DEFAULT_RANGE_THRES_REG_CFG;
  67              		.loc 1 183 0 discriminator 4
  68 0034 404A     		ldr	r2, .L12+32
  69 0036 414B     		ldr	r3, .L12+36
  70 0038 1A60     		str	r2, [r3]
 184:.\Generated_Source\PSoC4/ADC.c ****     ADC_SAR_RANGE_COND_REG  = ADC_COMPARE_MODE;
  71              		.loc 1 184 0 discriminator 4
  72 003a 0023     		mov	r3, #0
  73 003c 404A     		ldr	r2, .L12+40
  74 003e 1360     		str	r3, [r2]
 185:.\Generated_Source\PSoC4/ADC.c ****     ADC_SAR_SAMPLE_TIME01_REG = ADC_DEFAULT_SAMPLE_TIME01_REG_CFG;
  75              		.loc 1 185 0 discriminator 4
  76 0040 404A     		ldr	r2, .L12+44
  77 0042 4149     		ldr	r1, .L12+48
  78 0044 0A60     		str	r2, [r1]
 186:.\Generated_Source\PSoC4/ADC.c ****     ADC_SAR_SAMPLE_TIME23_REG = ADC_DEFAULT_SAMPLE_TIME23_REG_CFG;
  79              		.loc 1 186 0 discriminator 4
  80 0046 4149     		ldr	r1, .L12+52
  81 0048 0A60     		str	r2, [r1]
 187:.\Generated_Source\PSoC4/ADC.c ****     
 188:.\Generated_Source\PSoC4/ADC.c ****     /* Connect Vm to VSSA when even one channel is single-ended or multiple channels configured */
 189:.\Generated_Source\PSoC4/ADC.c ****     #if(ADC_DEFAULT_MUX_SWITCH0 != 0u)
 190:.\Generated_Source\PSoC4/ADC.c ****         ADC_MUX_SWITCH0_REG |= ADC_DEFAULT_MUX_SWITCH0;
  82              		.loc 1 190 0 discriminator 4
  83 004a 414A     		ldr	r2, .L12+56
  84 004c 1168     		ldr	r1, [r2]
  85 004e 8020     		mov	r0, #128
  86 0050 4002     		lsl	r0, r0, #9
  87 0052 0143     		orr	r1, r0
  88 0054 1160     		str	r1, [r2]
 191:.\Generated_Source\PSoC4/ADC.c ****         /* Set MUX_HW_CTRL_VSSA in MUX_SWITCH_HW_CTRL when multiple channels enabled */
 192:.\Generated_Source\PSoC4/ADC.c ****         #if(ADC_TOTAL_CHANNELS_NUM > 1u)
 193:.\Generated_Source\PSoC4/ADC.c ****             ADC_MUX_SWITCH_HW_CTRL_REG |= ADC_DEFAULT_MUX_SWITCH0;
  89              		.loc 1 193 0 discriminator 4
  90 0056 3F49     		ldr	r1, .L12+60
ARM GAS  C:\Users\Svilen\AppData\Local\Temp\ccj4G4Lh.s 			page 6


  91 0058 0A68     		ldr	r2, [r1]
  92 005a 0243     		orr	r2, r0
  93 005c 0A60     		str	r2, [r1]
 194:.\Generated_Source\PSoC4/ADC.c ****         #endif /* ADC_TOTAL_CHANNELS_NUM > 1u */
 195:.\Generated_Source\PSoC4/ADC.c ****     #endif /*ADC_CHANNELS_MODE !=0 */
 196:.\Generated_Source\PSoC4/ADC.c **** 
 197:.\Generated_Source\PSoC4/ADC.c ****     ADC_SAR_SATURATE_INTR_MASK_REG = 0u;
  94              		.loc 1 197 0 discriminator 4
  95 005e 3E4A     		ldr	r2, .L12+64
  96 0060 1360     		str	r3, [r2]
 198:.\Generated_Source\PSoC4/ADC.c ****     ADC_SAR_RANGE_INTR_MASK_REG = 0u;
  97              		.loc 1 198 0 discriminator 4
  98 0062 3E4A     		ldr	r2, .L12+68
  99 0064 1360     		str	r3, [r2]
 199:.\Generated_Source\PSoC4/ADC.c ****     ADC_SAR_INTR_MASK_REG = ADC_SAR_INTR_MASK;
 100              		.loc 1 199 0 discriminator 4
 101 0066 0133     		add	r3, r3, #1
 102 0068 3D4A     		ldr	r2, .L12+72
 103 006a 1360     		str	r3, [r2]
 200:.\Generated_Source\PSoC4/ADC.c **** 
 201:.\Generated_Source\PSoC4/ADC.c ****     #if(ADC_CY_SAR_IP_VER == ADC_CY_SAR_IP_VER0)
 202:.\Generated_Source\PSoC4/ADC.c ****         ADC_ANA_TRIM_REG = ADC_TRIM_COEF;
 104              		.loc 1 202 0 discriminator 4
 105 006c 0221     		mov	r1, #2
 106 006e 3D4A     		ldr	r2, .L12+76
 107 0070 1160     		str	r1, [r2]
 203:.\Generated_Source\PSoC4/ADC.c ****     #endif /* (ADC_CY_SAR_IP_VER == ADC_CY_SAR_IP_VER0) */
 204:.\Generated_Source\PSoC4/ADC.c **** 
 205:.\Generated_Source\PSoC4/ADC.c ****     /* Read and modify default configuration based on characterization */
 206:.\Generated_Source\PSoC4/ADC.c ****     tmpRegVal = ADC_SAR_DFT_CTRL_REG;
 108              		.loc 1 206 0 discriminator 4
 109 0072 3D49     		ldr	r1, .L12+80
 110 0074 0868     		ldr	r0, [r1]
 111              	.LVL2:
 207:.\Generated_Source\PSoC4/ADC.c ****     tmpRegVal &= (uint32)~ADC_DCEN;
 112              		.loc 1 207 0 discriminator 4
 113 0076 3D4A     		ldr	r2, .L12+84
 114 0078 0240     		and	r2, r0
 115              	.LVL3:
 208:.\Generated_Source\PSoC4/ADC.c ****     
 209:.\Generated_Source\PSoC4/ADC.c ****     #if(ADC_CY_SAR_IP_VER == ADC_CY_SAR_IP_VER0)
 210:.\Generated_Source\PSoC4/ADC.c ****         #if(ADC_NOMINAL_CLOCK_FREQ > (ADC_MAX_FREQUENCY / 2))
 211:.\Generated_Source\PSoC4/ADC.c ****             tmpRegVal |= ADC_SEL_CSEL_DFT_CHAR;
 212:.\Generated_Source\PSoC4/ADC.c ****         #else  /* clock speed < 9 Mhz */
 213:.\Generated_Source\PSoC4/ADC.c ****             tmpRegVal |= ADC_DLY_INC;
 116              		.loc 1 213 0 discriminator 4
 117 007a 1343     		orr	r3, r2
 118              	.LVL4:
 214:.\Generated_Source\PSoC4/ADC.c ****         #endif /* clock speed > 9 Mhz */
 215:.\Generated_Source\PSoC4/ADC.c ****     #else
 216:.\Generated_Source\PSoC4/ADC.c ****         #if ((ADC_DEFAULT_VREF_SEL == ADC__INTERNAL1024) || \
 217:.\Generated_Source\PSoC4/ADC.c ****              (ADC_DEFAULT_VREF_SEL == ADC__INTERNALVREF))
 218:.\Generated_Source\PSoC4/ADC.c ****             tmpRegVal |= ADC_DLY_INC;
 219:.\Generated_Source\PSoC4/ADC.c ****         #else
 220:.\Generated_Source\PSoC4/ADC.c ****             tmpRegVal |= ADC_DCEN;
 221:.\Generated_Source\PSoC4/ADC.c ****             tmpRegVal &= (uint32)~ADC_DLY_INC;
 222:.\Generated_Source\PSoC4/ADC.c ****         #endif /* ((ADC_DEFAULT_VREF_SEL == ADC__INTERNAL1024) || \
ARM GAS  C:\Users\Svilen\AppData\Local\Temp\ccj4G4Lh.s 			page 7


 223:.\Generated_Source\PSoC4/ADC.c ****                    (ADC_DEFAULT_VREF_SEL == ADC__INTERNALVREF)) */
 224:.\Generated_Source\PSoC4/ADC.c ****     #endif /* (ADC_CY_SAR_IP_VER == ADC_CY_SAR_IP_VER0) */
 225:.\Generated_Source\PSoC4/ADC.c ****     
 226:.\Generated_Source\PSoC4/ADC.c ****     ADC_SAR_DFT_CTRL_REG = tmpRegVal;
 119              		.loc 1 226 0 discriminator 4
 120 007c 0B60     		str	r3, [r1]
 121              	.LVL5:
 227:.\Generated_Source\PSoC4/ADC.c **** 
 228:.\Generated_Source\PSoC4/ADC.c ****     #if(ADC_MAX_RESOLUTION != ADC_RESOLUTION_12)
 229:.\Generated_Source\PSoC4/ADC.c ****         ADC_WOUNDING_REG = ADC_ALT_WOUNDING;
 230:.\Generated_Source\PSoC4/ADC.c ****     #endif /* ADC_MAX_RESOLUTION != ADC_RESOLUTION_12 */
 231:.\Generated_Source\PSoC4/ADC.c **** 
 232:.\Generated_Source\PSoC4/ADC.c ****     for(chNum = 0u; chNum < ADC_TOTAL_CHANNELS_NUM; chNum++)
 122              		.loc 1 232 0 discriminator 4
 123 007e 0024     		mov	r4, #0
 124 0080 47E0     		b	.L3
 125              	.LVL6:
 126              	.L9:
 233:.\Generated_Source\PSoC4/ADC.c ****     {
 234:.\Generated_Source\PSoC4/ADC.c ****         tmpRegVal = (ADC_channelsConfig[chNum] & ADC_CHANNEL_CONFIG_MASK);
 127              		.loc 1 234 0
 128 0082 3B49     		ldr	r1, .L12+88
 129 0084 A200     		lsl	r2, r4, #2
 130 0086 5058     		ldr	r0, [r2, r1]
 131 0088 DC23     		mov	r3, #220
 132 008a 9B01     		lsl	r3, r3, #6
 133 008c 0340     		and	r3, r0
 134              	.LVL7:
 235:.\Generated_Source\PSoC4/ADC.c ****         #if(ADC_TOTAL_CHANNELS_NUM > 1u)
 236:.\Generated_Source\PSoC4/ADC.c ****             tmpRegVal |= ADC_InputsPlacement[chNum];
 135              		.loc 1 236 0
 136 008e 0919     		add	r1, r1, r4
 137 0090 097A     		ldrb	r1, [r1, #8]
 138 0092 0B43     		orr	r3, r1
 139              	.LVL8:
 237:.\Generated_Source\PSoC4/ADC.c ****         #endif /* End ADC_TOTAL_CHANNELS_NUM > 1u */
 238:.\Generated_Source\PSoC4/ADC.c ****         
 239:.\Generated_Source\PSoC4/ADC.c ****         
 240:.\Generated_Source\PSoC4/ADC.c ****         /* When the part is limited to 10-bit then the SUB_RESOLUTION bit
 241:.\Generated_Source\PSoC4/ADC.c ****         *  will be ignored and the RESOLUTION bit selects between 10-bit
 242:.\Generated_Source\PSoC4/ADC.c ****         *  (0) and 8-bit (1) resolution.
 243:.\Generated_Source\PSoC4/ADC.c ****         */
 244:.\Generated_Source\PSoC4/ADC.c ****         #if((ADC_MAX_RESOLUTION != ADC_RESOLUTION_12) && \
 245:.\Generated_Source\PSoC4/ADC.c ****             (ADC_ALT_WOUNDING == ADC_WOUNDING_10BIT))
 246:.\Generated_Source\PSoC4/ADC.c ****             tmpRegVal &= (uint32)(~ADC_ALT_RESOLUTION_ON);
 247:.\Generated_Source\PSoC4/ADC.c ****         #endif /* ADC_MAX_RESOLUTION != ADC_RESOLUTION_12 */
 248:.\Generated_Source\PSoC4/ADC.c **** 
 249:.\Generated_Source\PSoC4/ADC.c ****         #if(ADC_INJ_CHANNEL_ENABLED)
 250:.\Generated_Source\PSoC4/ADC.c ****         if(chNum < ADC_SEQUENCED_CHANNELS_NUM)
 251:.\Generated_Source\PSoC4/ADC.c ****         #endif /* ADC_INJ_CHANNEL_ENABLED */
 252:.\Generated_Source\PSoC4/ADC.c ****         {
 253:.\Generated_Source\PSoC4/ADC.c ****             CY_SET_REG32((reg32 *)(ADC_SAR_CHAN_CONFIG_IND + (uint32)(chNum << 2)), tmpRegVal);
 140              		.loc 1 253 0
 141 0094 3749     		ldr	r1, .L12+92
 142 0096 8C46     		mov	ip, r1
 143 0098 6244     		add	r2, r2, ip
 144 009a 1360     		str	r3, [r2]
ARM GAS  C:\Users\Svilen\AppData\Local\Temp\ccj4G4Lh.s 			page 8


 254:.\Generated_Source\PSoC4/ADC.c **** 
 255:.\Generated_Source\PSoC4/ADC.c ****             if((ADC_channelsConfig[chNum] & ADC_IS_SATURATE_EN_MASK) != 0u)
 145              		.loc 1 255 0
 146 009c C307     		lsl	r3, r0, #31
 147 009e 08D5     		bpl	.L4
 148              	.LVL9:
 256:.\Generated_Source\PSoC4/ADC.c ****             {
 257:.\Generated_Source\PSoC4/ADC.c ****                 ADC_SAR_SATURATE_INTR_MASK_REG |= (uint16)((uint16)1 << chNum);
 149              		.loc 1 257 0
 150 00a0 2D49     		ldr	r1, .L12+64
 151 00a2 0868     		ldr	r0, [r1]
 152 00a4 8022     		mov	r2, #128
 153              	.LVL10:
 154 00a6 5202     		lsl	r2, r2, #9
 155 00a8 131C     		mov	r3, r2
 156 00aa A340     		lsl	r3, r3, r4
 157 00ac 1B0C     		lsr	r3, r3, #16
 158 00ae 0343     		orr	r3, r0
 159 00b0 0B60     		str	r3, [r1]
 160              	.LVL11:
 161              	.L4:
 258:.\Generated_Source\PSoC4/ADC.c ****             }
 259:.\Generated_Source\PSoC4/ADC.c **** 
 260:.\Generated_Source\PSoC4/ADC.c ****             if((ADC_channelsConfig[chNum] & ADC_IS_RANGE_CTRL_EN_MASK) != 0u)
 162              		.loc 1 260 0
 163 00b2 A300     		lsl	r3, r4, #2
 164 00b4 2E4A     		ldr	r2, .L12+88
 165              	.LVL12:
 166 00b6 9B58     		ldr	r3, [r3, r2]
 167 00b8 9B07     		lsl	r3, r3, #30
 168 00ba 08D5     		bpl	.L5
 261:.\Generated_Source\PSoC4/ADC.c ****             {
 262:.\Generated_Source\PSoC4/ADC.c ****                 ADC_SAR_RANGE_INTR_MASK_REG |= (uint16)((uint16)1 << chNum);
 169              		.loc 1 262 0
 170 00bc 2749     		ldr	r1, .L12+68
 171 00be 0868     		ldr	r0, [r1]
 172 00c0 8022     		mov	r2, #128
 173              	.LVL13:
 174 00c2 5202     		lsl	r2, r2, #9
 175 00c4 131C     		mov	r3, r2
 176 00c6 A340     		lsl	r3, r3, r4
 177 00c8 1B0C     		lsr	r3, r3, #16
 178 00ca 0343     		orr	r3, r0
 179 00cc 0B60     		str	r3, [r1]
 180              	.L5:
 263:.\Generated_Source\PSoC4/ADC.c ****             }
 264:.\Generated_Source\PSoC4/ADC.c ****         }
 265:.\Generated_Source\PSoC4/ADC.c ****         #if(ADC_INJ_CHANNEL_ENABLED)
 266:.\Generated_Source\PSoC4/ADC.c ****             else
 267:.\Generated_Source\PSoC4/ADC.c ****             {
 268:.\Generated_Source\PSoC4/ADC.c ****                 CY_SET_REG32(ADC_SAR_INJ_CHAN_CONFIG_PTR, tmpRegVal | ADC_INJ_TAILGATING);
 269:.\Generated_Source\PSoC4/ADC.c **** 
 270:.\Generated_Source\PSoC4/ADC.c ****                 if((ADC_channelsConfig[chNum] & ADC_IS_SATURATE_EN_MASK) != 0u)
 271:.\Generated_Source\PSoC4/ADC.c ****                 {
 272:.\Generated_Source\PSoC4/ADC.c ****                     ADC_SAR_INTR_MASK_REG |= ADC_INJ_SATURATE_MASK;
 273:.\Generated_Source\PSoC4/ADC.c ****                 }
 274:.\Generated_Source\PSoC4/ADC.c **** 
ARM GAS  C:\Users\Svilen\AppData\Local\Temp\ccj4G4Lh.s 			page 9


 275:.\Generated_Source\PSoC4/ADC.c ****                 if((ADC_channelsConfig[chNum] & ADC_IS_RANGE_CTRL_EN_MASK) != 0u)
 276:.\Generated_Source\PSoC4/ADC.c ****                 {
 277:.\Generated_Source\PSoC4/ADC.c ****                     ADC_SAR_INTR_MASK_REG |= ADC_INJ_RANGE_MASK;
 278:.\Generated_Source\PSoC4/ADC.c ****                 }
 279:.\Generated_Source\PSoC4/ADC.c ****             }
 280:.\Generated_Source\PSoC4/ADC.c ****         #endif /* ADC_INJ_CHANNEL_ENABLED */
 281:.\Generated_Source\PSoC4/ADC.c **** 
 282:.\Generated_Source\PSoC4/ADC.c ****         if((ADC_channelsConfig[chNum] & ADC_ALT_RESOLUTION_ON) != 0u)
 181              		.loc 1 282 0
 182 00ce A300     		lsl	r3, r4, #2
 183 00d0 274A     		ldr	r2, .L12+88
 184              	.LVL14:
 185 00d2 9B58     		ldr	r3, [r3, r2]
 186 00d4 9A05     		lsl	r2, r3, #22
 187 00d6 02D5     		bpl	.L11
 188              	.LVL15:
 283:.\Generated_Source\PSoC4/ADC.c ****         {
 284:.\Generated_Source\PSoC4/ADC.c ****                counts = (int32)ADC_DEFAULT_MAX_WRK_ALT;
 189              		.loc 1 284 0
 190 00d8 8020     		mov	r0, #128
 191 00da 4000     		lsl	r0, r0, #1
 192 00dc 01E0     		b	.L6
 193              	.L11:
 285:.\Generated_Source\PSoC4/ADC.c ****         }
 286:.\Generated_Source\PSoC4/ADC.c ****         else
 287:.\Generated_Source\PSoC4/ADC.c ****         {
 288:.\Generated_Source\PSoC4/ADC.c ****                counts = (int32)ADC_SAR_WRK_MAX_12BIT;
 194              		.loc 1 288 0
 195 00de 8020     		mov	r0, #128
 196 00e0 4001     		lsl	r0, r0, #5
 197              	.L6:
 198              	.LVL16:
 289:.\Generated_Source\PSoC4/ADC.c ****         }
 290:.\Generated_Source\PSoC4/ADC.c **** 
 291:.\Generated_Source\PSoC4/ADC.c ****         if((ADC_channelsConfig[chNum] & ADC_DIFFERENTIAL_EN) == 0u)
 199              		.loc 1 291 0
 200 00e2 DB05     		lsl	r3, r3, #23
 201 00e4 04D4     		bmi	.L7
 292:.\Generated_Source\PSoC4/ADC.c ****         {
 293:.\Generated_Source\PSoC4/ADC.c ****             #if((ADC_DEFAULT_SE_RESULT_FORMAT_SEL == ADC__FSIGNED) && \
 294:.\Generated_Source\PSoC4/ADC.c ****                 (ADC_DEFAULT_NEG_INPUT_SEL == ADC__VREF))
 295:.\Generated_Source\PSoC4/ADC.c ****                 /* Set offset to the minus half scale to convert results to unsigned format */
 296:.\Generated_Source\PSoC4/ADC.c ****                 ADC_offset[chNum] = (int16)(counts / -2);
 297:.\Generated_Source\PSoC4/ADC.c ****             #else
 298:.\Generated_Source\PSoC4/ADC.c ****                 ADC_offset[chNum] = 0;
 202              		.loc 1 298 0
 203 00e6 6300     		lsl	r3, r4, #1
 204 00e8 0021     		mov	r1, #0
 205 00ea 234A     		ldr	r2, .L12+96
 206 00ec 9952     		strh	r1, [r3, r2]
 207 00ee 03E0     		b	.L8
 208              	.L7:
 299:.\Generated_Source\PSoC4/ADC.c ****             #endif /* end DEFAULT_SE_RESULT_FORMAT_SEL == ADC__FSIGNED */
 300:.\Generated_Source\PSoC4/ADC.c ****         }
 301:.\Generated_Source\PSoC4/ADC.c ****         else    /* Differential channel */
 302:.\Generated_Source\PSoC4/ADC.c ****         {
 303:.\Generated_Source\PSoC4/ADC.c ****             #if(ADC_DEFAULT_DIFF_RESULT_FORMAT_SEL == ADC__FUNSIGNED)
ARM GAS  C:\Users\Svilen\AppData\Local\Temp\ccj4G4Lh.s 			page 10


 304:.\Generated_Source\PSoC4/ADC.c ****                 /* Set offset to the half scale to convert results to signed format */
 305:.\Generated_Source\PSoC4/ADC.c ****                 ADC_offset[chNum] = (int16)(counts / 2);
 209              		.loc 1 305 0
 210 00f0 4208     		lsr	r2, r0, #1
 211 00f2 6300     		lsl	r3, r4, #1
 212 00f4 2049     		ldr	r1, .L12+96
 213 00f6 5A52     		strh	r2, [r3, r1]
 214              	.L8:
 306:.\Generated_Source\PSoC4/ADC.c ****             #else
 307:.\Generated_Source\PSoC4/ADC.c ****                 ADC_offset[chNum] = 0;
 308:.\Generated_Source\PSoC4/ADC.c ****             #endif /* end ADC_DEFAULT_DIFF_RESULT_FORMAT_SEL == ADC__FUNSIGNED */
 309:.\Generated_Source\PSoC4/ADC.c ****         }
 310:.\Generated_Source\PSoC4/ADC.c ****         /* Calculate gain in counts per 10 volts with rounding */
 311:.\Generated_Source\PSoC4/ADC.c ****         ADC_countsPer10Volt[chNum] = (int16)(((counts * ADC_10MV_COUNTS) +
 215              		.loc 1 311 0 discriminator 2
 216 00f8 204B     		ldr	r3, .L12+100
 217 00fa 5843     		mul	r0, r3
 218              	.LVL17:
 219 00fc 204B     		ldr	r3, .L12+104
 220 00fe 9C46     		mov	ip, r3
 221 0100 6044     		add	r0, r0, ip
 312:.\Generated_Source\PSoC4/ADC.c ****                             ADC_DEFAULT_VREF_MV_VALUE) / (ADC_DEFAULT_VREF_MV_VALUE * 2));
 222              		.loc 1 312 0 discriminator 2
 223 0102 2049     		ldr	r1, .L12+108
 224 0104 FFF7FEFF 		bl	__aeabi_idiv
 225              	.LVL18:
 311:.\Generated_Source\PSoC4/ADC.c ****                             ADC_DEFAULT_VREF_MV_VALUE) / (ADC_DEFAULT_VREF_MV_VALUE * 2));
 226              		.loc 1 311 0 discriminator 2
 227 0108 00B2     		sxth	r0, r0
 228 010a A200     		lsl	r2, r4, #2
 229 010c 1E4B     		ldr	r3, .L12+112
 230 010e D050     		str	r0, [r2, r3]
 232:.\Generated_Source\PSoC4/ADC.c ****     {
 231              		.loc 1 232 0 discriminator 2
 232 0110 0134     		add	r4, r4, #1
 233              	.LVL19:
 234              	.L3:
 232:.\Generated_Source\PSoC4/ADC.c ****     {
 235              		.loc 1 232 0 is_stmt 0 discriminator 1
 236 0112 012C     		cmp	r4, #1
 237 0114 B5D9     		bls	.L9
 313:.\Generated_Source\PSoC4/ADC.c ****     }
 314:.\Generated_Source\PSoC4/ADC.c **** }
 238              		.loc 1 314 0 is_stmt 1
 239              		@ sp needed
 240              	.LVL20:
 241 0116 10BD     		pop	{r4, pc}
 242              	.L13:
 243              		.align	2
 244              	.L12:
 245 0118 00000000 		.word	ADC_ISR
 246 011c 20001A40 		.word	1075445792
 247 0120 80031A40 		.word	1075446656
 248 0124 70201011 		.word	286269552
 249 0128 70200011 		.word	285220976
 250 012c 00001A40 		.word	1075445760
 251 0130 C4000080 		.word	-2147483452
ARM GAS  C:\Users\Svilen\AppData\Local\Temp\ccj4G4Lh.s 			page 11


 252 0134 04001A40 		.word	1075445764
 253 0138 0000FF07 		.word	134152192
 254 013c 18001A40 		.word	1075445784
 255 0140 1C001A40 		.word	1075445788
 256 0144 05000500 		.word	327685
 257 0148 10001A40 		.word	1075445776
 258 014c 14001A40 		.word	1075445780
 259 0150 00031A40 		.word	1075446528
 260 0154 40031A40 		.word	1075446592
 261 0158 28021A40 		.word	1075446312
 262 015c 38021A40 		.word	1075446328
 263 0160 18021A40 		.word	1075446296
 264 0164 000F1A40 		.word	1075449600
 265 0168 30001A40 		.word	1075445808
 266 016c FFFFFFDF 		.word	-536870913
 267 0170 00000000 		.word	.LANCHOR0
 268 0174 80001A40 		.word	1075445888
 269 0178 00000000 		.word	ADC_offset
 270 017c 10270000 		.word	10000
 271 0180 E40C0000 		.word	3300
 272 0184 C8190000 		.word	6600
 273 0188 00000000 		.word	ADC_countsPer10Volt
 274              		.cfi_endproc
 275              	.LFE1:
 276              		.size	ADC_Init, .-ADC_Init
 277              		.section	.text.ADC_Enable,"ax",%progbits
 278              		.align	2
 279              		.global	ADC_Enable
 280              		.code	16
 281              		.thumb_func
 282              		.type	ADC_Enable, %function
 283              	ADC_Enable:
 284              	.LFB2:
 315:.\Generated_Source\PSoC4/ADC.c **** 
 316:.\Generated_Source\PSoC4/ADC.c **** /*******************************************************************************
 317:.\Generated_Source\PSoC4/ADC.c **** * Function Name: ADC_SAR_1_Enable
 318:.\Generated_Source\PSoC4/ADC.c **** ********************************************************************************
 319:.\Generated_Source\PSoC4/ADC.c **** *
 320:.\Generated_Source\PSoC4/ADC.c **** * Summary:
 321:.\Generated_Source\PSoC4/ADC.c **** *  Enables the clock and analog power for SAR ADC.
 322:.\Generated_Source\PSoC4/ADC.c **** *
 323:.\Generated_Source\PSoC4/ADC.c **** * Parameters:
 324:.\Generated_Source\PSoC4/ADC.c **** *  None.
 325:.\Generated_Source\PSoC4/ADC.c **** *
 326:.\Generated_Source\PSoC4/ADC.c **** * Return:
 327:.\Generated_Source\PSoC4/ADC.c **** *  None.
 328:.\Generated_Source\PSoC4/ADC.c **** *
 329:.\Generated_Source\PSoC4/ADC.c **** *******************************************************************************/
 330:.\Generated_Source\PSoC4/ADC.c **** void ADC_Enable(void)
 331:.\Generated_Source\PSoC4/ADC.c **** {
 285              		.loc 1 331 0
 286              		.cfi_startproc
 287 0000 08B5     		push	{r3, lr}
 288              		.cfi_def_cfa_offset 8
 289              		.cfi_offset 3, -8
 290              		.cfi_offset 14, -4
 332:.\Generated_Source\PSoC4/ADC.c ****     if (0u == (ADC_SAR_CTRL_REG & ADC_ENABLE))
ARM GAS  C:\Users\Svilen\AppData\Local\Temp\ccj4G4Lh.s 			page 12


 291              		.loc 1 332 0
 292 0002 074B     		ldr	r3, .L16
 293 0004 1B68     		ldr	r3, [r3]
 294 0006 002B     		cmp	r3, #0
 295 0008 08DB     		blt	.L14
 333:.\Generated_Source\PSoC4/ADC.c ****     {
 334:.\Generated_Source\PSoC4/ADC.c ****         #if(ADC_CY_SAR_IP_VER != ADC_CY_SAR_IP_VER0)
 335:.\Generated_Source\PSoC4/ADC.c **** 
 336:.\Generated_Source\PSoC4/ADC.c ****             while (0u != (ADC_SAR_STATUS_REG & ADC_STATUS_BUSY))
 337:.\Generated_Source\PSoC4/ADC.c ****             {
 338:.\Generated_Source\PSoC4/ADC.c ****                 /* wait for SAR to go idle to avoid deadlock */
 339:.\Generated_Source\PSoC4/ADC.c ****             }
 340:.\Generated_Source\PSoC4/ADC.c ****         #endif /* (ADC_CY_SAR_IP_VER != ADC_CY_SAR_IP_VER0) */
 341:.\Generated_Source\PSoC4/ADC.c ****         
 342:.\Generated_Source\PSoC4/ADC.c ****         ADC_SAR_CTRL_REG |= ADC_ENABLE;
 296              		.loc 1 342 0
 297 000a 054A     		ldr	r2, .L16
 298 000c 1368     		ldr	r3, [r2]
 299 000e 8021     		mov	r1, #128
 300 0010 0906     		lsl	r1, r1, #24
 301 0012 0B43     		orr	r3, r1
 302 0014 1360     		str	r3, [r2]
 343:.\Generated_Source\PSoC4/ADC.c ****         
 344:.\Generated_Source\PSoC4/ADC.c ****         /* The block is ready to use 10 us after the enable signal is set high. */
 345:.\Generated_Source\PSoC4/ADC.c ****         CyDelayUs(ADC_10US_DELAY);         
 303              		.loc 1 345 0
 304 0016 0A20     		mov	r0, #10
 305 0018 FFF7FEFF 		bl	CyDelayUs
 306              	.LVL21:
 307              	.L14:
 346:.\Generated_Source\PSoC4/ADC.c ****     }
 347:.\Generated_Source\PSoC4/ADC.c **** }
 308              		.loc 1 347 0
 309              		@ sp needed
 310 001c 08BD     		pop	{r3, pc}
 311              	.L17:
 312 001e C046     		.align	2
 313              	.L16:
 314 0020 00001A40 		.word	1075445760
 315              		.cfi_endproc
 316              	.LFE2:
 317              		.size	ADC_Enable, .-ADC_Enable
 318              		.section	.text.ADC_Start,"ax",%progbits
 319              		.align	2
 320              		.global	ADC_Start
 321              		.code	16
 322              		.thumb_func
 323              		.type	ADC_Start, %function
 324              	ADC_Start:
 325              	.LFB0:
  64:.\Generated_Source\PSoC4/ADC.c ****     /* If not Initialized then initialize all required hardware and software */
 326              		.loc 1 64 0
 327              		.cfi_startproc
 328 0000 08B5     		push	{r3, lr}
 329              		.cfi_def_cfa_offset 8
 330              		.cfi_offset 3, -8
 331              		.cfi_offset 14, -4
ARM GAS  C:\Users\Svilen\AppData\Local\Temp\ccj4G4Lh.s 			page 13


  66:.\Generated_Source\PSoC4/ADC.c ****     {
 332              		.loc 1 66 0
 333 0002 064B     		ldr	r3, .L20
 334 0004 1B78     		ldrb	r3, [r3]
 335 0006 002B     		cmp	r3, #0
 336 0008 04D1     		bne	.L19
  68:.\Generated_Source\PSoC4/ADC.c ****         ADC_initVar = 1u;
 337              		.loc 1 68 0
 338 000a FFF7FEFF 		bl	ADC_Init
 339              	.LVL22:
  69:.\Generated_Source\PSoC4/ADC.c ****     }
 340              		.loc 1 69 0
 341 000e 0122     		mov	r2, #1
 342 0010 024B     		ldr	r3, .L20
 343 0012 1A70     		strb	r2, [r3]
 344              	.L19:
  71:.\Generated_Source\PSoC4/ADC.c **** }
 345              		.loc 1 71 0
 346 0014 FFF7FEFF 		bl	ADC_Enable
 347              	.LVL23:
  72:.\Generated_Source\PSoC4/ADC.c **** 
 348              		.loc 1 72 0
 349              		@ sp needed
 350 0018 08BD     		pop	{r3, pc}
 351              	.L21:
 352 001a C046     		.align	2
 353              	.L20:
 354 001c 00000000 		.word	.LANCHOR1
 355              		.cfi_endproc
 356              	.LFE0:
 357              		.size	ADC_Start, .-ADC_Start
 358              		.section	.text.ADC_Stop,"ax",%progbits
 359              		.align	2
 360              		.global	ADC_Stop
 361              		.code	16
 362              		.thumb_func
 363              		.type	ADC_Stop, %function
 364              	ADC_Stop:
 365              	.LFB3:
 348:.\Generated_Source\PSoC4/ADC.c **** 
 349:.\Generated_Source\PSoC4/ADC.c **** 
 350:.\Generated_Source\PSoC4/ADC.c **** /*******************************************************************************
 351:.\Generated_Source\PSoC4/ADC.c **** * Function Name: ADC_Stop
 352:.\Generated_Source\PSoC4/ADC.c **** ********************************************************************************
 353:.\Generated_Source\PSoC4/ADC.c **** *
 354:.\Generated_Source\PSoC4/ADC.c **** * Summary:
 355:.\Generated_Source\PSoC4/ADC.c **** *  This function stops ADC conversions and puts the ADC into its lowest power
 356:.\Generated_Source\PSoC4/ADC.c **** *  mode.
 357:.\Generated_Source\PSoC4/ADC.c **** *
 358:.\Generated_Source\PSoC4/ADC.c **** * Parameters:
 359:.\Generated_Source\PSoC4/ADC.c **** *  None.
 360:.\Generated_Source\PSoC4/ADC.c **** *
 361:.\Generated_Source\PSoC4/ADC.c **** * Return:
 362:.\Generated_Source\PSoC4/ADC.c **** *  None.
 363:.\Generated_Source\PSoC4/ADC.c **** *
 364:.\Generated_Source\PSoC4/ADC.c **** *******************************************************************************/
 365:.\Generated_Source\PSoC4/ADC.c **** void ADC_Stop(void)
ARM GAS  C:\Users\Svilen\AppData\Local\Temp\ccj4G4Lh.s 			page 14


 366:.\Generated_Source\PSoC4/ADC.c **** {
 366              		.loc 1 366 0
 367              		.cfi_startproc
 367:.\Generated_Source\PSoC4/ADC.c ****     ADC_SAR_CTRL_REG &= (uint32)~ADC_ENABLE;
 368              		.loc 1 367 0
 369 0000 024A     		ldr	r2, .L23
 370 0002 1368     		ldr	r3, [r2]
 371 0004 5B00     		lsl	r3, r3, #1
 372 0006 5B08     		lsr	r3, r3, #1
 373 0008 1360     		str	r3, [r2]
 368:.\Generated_Source\PSoC4/ADC.c **** }
 374              		.loc 1 368 0
 375              		@ sp needed
 376 000a 7047     		bx	lr
 377              	.L24:
 378              		.align	2
 379              	.L23:
 380 000c 00001A40 		.word	1075445760
 381              		.cfi_endproc
 382              	.LFE3:
 383              		.size	ADC_Stop, .-ADC_Stop
 384              		.section	.text.ADC_StartConvert,"ax",%progbits
 385              		.align	2
 386              		.global	ADC_StartConvert
 387              		.code	16
 388              		.thumb_func
 389              		.type	ADC_StartConvert, %function
 390              	ADC_StartConvert:
 391              	.LFB4:
 369:.\Generated_Source\PSoC4/ADC.c **** 
 370:.\Generated_Source\PSoC4/ADC.c **** 
 371:.\Generated_Source\PSoC4/ADC.c **** /*******************************************************************************
 372:.\Generated_Source\PSoC4/ADC.c **** * Function Name: ADC_StartConvert
 373:.\Generated_Source\PSoC4/ADC.c **** ********************************************************************************
 374:.\Generated_Source\PSoC4/ADC.c **** *
 375:.\Generated_Source\PSoC4/ADC.c **** * Summary:
 376:.\Generated_Source\PSoC4/ADC.c **** *  Description:
 377:.\Generated_Source\PSoC4/ADC.c **** *  For free running mode, this API starts the conversion process and it
 378:.\Generated_Source\PSoC4/ADC.c **** *  runs continuously.
 379:.\Generated_Source\PSoC4/ADC.c **** *
 380:.\Generated_Source\PSoC4/ADC.c **** *  In a triggered mode, this routine triggers every conversion by
 381:.\Generated_Source\PSoC4/ADC.c **** *  writing into the FW_TRIGGER bit in SAR_START_CTRL reg. In triggered mode,
 382:.\Generated_Source\PSoC4/ADC.c **** *  every conversion has to start by this API.
 383:.\Generated_Source\PSoC4/ADC.c **** *
 384:.\Generated_Source\PSoC4/ADC.c **** * Parameters:
 385:.\Generated_Source\PSoC4/ADC.c **** *  None.
 386:.\Generated_Source\PSoC4/ADC.c **** *
 387:.\Generated_Source\PSoC4/ADC.c **** * Return:
 388:.\Generated_Source\PSoC4/ADC.c **** *  None.
 389:.\Generated_Source\PSoC4/ADC.c **** *
 390:.\Generated_Source\PSoC4/ADC.c **** *******************************************************************************/
 391:.\Generated_Source\PSoC4/ADC.c **** void ADC_StartConvert(void)
 392:.\Generated_Source\PSoC4/ADC.c **** {
 392              		.loc 1 392 0
 393              		.cfi_startproc
 393:.\Generated_Source\PSoC4/ADC.c ****     #if(ADC_DEFAULT_SAMPLE_MODE_SEL == ADC__FREERUNNING)
 394:.\Generated_Source\PSoC4/ADC.c ****         ADC_SAR_SAMPLE_CTRL_REG |= ADC_CONTINUOUS_EN;
ARM GAS  C:\Users\Svilen\AppData\Local\Temp\ccj4G4Lh.s 			page 15


 394              		.loc 1 394 0
 395 0000 034A     		ldr	r2, .L26
 396 0002 1368     		ldr	r3, [r2]
 397 0004 8021     		mov	r1, #128
 398 0006 4902     		lsl	r1, r1, #9
 399 0008 0B43     		orr	r3, r1
 400 000a 1360     		str	r3, [r2]
 395:.\Generated_Source\PSoC4/ADC.c ****     #else /* Firmware trigger */
 396:.\Generated_Source\PSoC4/ADC.c ****         ADC_SAR_START_CTRL_REG = ADC_FW_TRIGGER;
 397:.\Generated_Source\PSoC4/ADC.c ****     #endif /* End ADC_DEFAULT_SAMPLE_MODE == ADC__FREERUNNING */
 398:.\Generated_Source\PSoC4/ADC.c **** 
 399:.\Generated_Source\PSoC4/ADC.c **** }
 401              		.loc 1 399 0
 402              		@ sp needed
 403 000c 7047     		bx	lr
 404              	.L27:
 405 000e C046     		.align	2
 406              	.L26:
 407 0010 04001A40 		.word	1075445764
 408              		.cfi_endproc
 409              	.LFE4:
 410              		.size	ADC_StartConvert, .-ADC_StartConvert
 411              		.section	.text.ADC_StopConvert,"ax",%progbits
 412              		.align	2
 413              		.global	ADC_StopConvert
 414              		.code	16
 415              		.thumb_func
 416              		.type	ADC_StopConvert, %function
 417              	ADC_StopConvert:
 418              	.LFB5:
 400:.\Generated_Source\PSoC4/ADC.c **** 
 401:.\Generated_Source\PSoC4/ADC.c **** 
 402:.\Generated_Source\PSoC4/ADC.c **** /*******************************************************************************
 403:.\Generated_Source\PSoC4/ADC.c **** * Function Name: ADC_StopConvert
 404:.\Generated_Source\PSoC4/ADC.c **** ********************************************************************************
 405:.\Generated_Source\PSoC4/ADC.c **** *
 406:.\Generated_Source\PSoC4/ADC.c **** * Summary:
 407:.\Generated_Source\PSoC4/ADC.c **** *  Forces the ADC to stop all conversions.
 408:.\Generated_Source\PSoC4/ADC.c **** *
 409:.\Generated_Source\PSoC4/ADC.c **** * Parameters:
 410:.\Generated_Source\PSoC4/ADC.c **** *  None.
 411:.\Generated_Source\PSoC4/ADC.c **** *
 412:.\Generated_Source\PSoC4/ADC.c **** * Return:
 413:.\Generated_Source\PSoC4/ADC.c **** *  None.
 414:.\Generated_Source\PSoC4/ADC.c **** *
 415:.\Generated_Source\PSoC4/ADC.c **** *******************************************************************************/
 416:.\Generated_Source\PSoC4/ADC.c **** void ADC_StopConvert(void)
 417:.\Generated_Source\PSoC4/ADC.c **** {
 419              		.loc 1 417 0
 420              		.cfi_startproc
 418:.\Generated_Source\PSoC4/ADC.c ****     #if(ADC_DEFAULT_SAMPLE_MODE_SEL == ADC__FREERUNNING)
 419:.\Generated_Source\PSoC4/ADC.c ****         ADC_SAR_SAMPLE_CTRL_REG &= (uint32)(~ADC_CONTINUOUS_EN);
 421              		.loc 1 419 0
 422 0000 024A     		ldr	r2, .L29
 423 0002 1168     		ldr	r1, [r2]
 424 0004 024B     		ldr	r3, .L29+4
 425 0006 0B40     		and	r3, r1
ARM GAS  C:\Users\Svilen\AppData\Local\Temp\ccj4G4Lh.s 			page 16


 426 0008 1360     		str	r3, [r2]
 420:.\Generated_Source\PSoC4/ADC.c ****     #endif /* ADC_DEFAULT_SAMPLE_MODE == ADC__FREERUNNING */
 421:.\Generated_Source\PSoC4/ADC.c **** }
 427              		.loc 1 421 0
 428              		@ sp needed
 429 000a 7047     		bx	lr
 430              	.L30:
 431              		.align	2
 432              	.L29:
 433 000c 04001A40 		.word	1075445764
 434 0010 FFFFFEFF 		.word	-65537
 435              		.cfi_endproc
 436              	.LFE5:
 437              		.size	ADC_StopConvert, .-ADC_StopConvert
 438              		.section	.text.ADC_IsEndConversion,"ax",%progbits
 439              		.align	2
 440              		.global	ADC_IsEndConversion
 441              		.code	16
 442              		.thumb_func
 443              		.type	ADC_IsEndConversion, %function
 444              	ADC_IsEndConversion:
 445              	.LFB6:
 422:.\Generated_Source\PSoC4/ADC.c **** 
 423:.\Generated_Source\PSoC4/ADC.c **** 
 424:.\Generated_Source\PSoC4/ADC.c **** /*******************************************************************************
 425:.\Generated_Source\PSoC4/ADC.c **** * Function Name: ADC_IsEndConversion
 426:.\Generated_Source\PSoC4/ADC.c **** ********************************************************************************
 427:.\Generated_Source\PSoC4/ADC.c **** *
 428:.\Generated_Source\PSoC4/ADC.c **** * Summary:
 429:.\Generated_Source\PSoC4/ADC.c **** *  Description: Checks for ADC end of conversion for the case one
 430:.\Generated_Source\PSoC4/ADC.c **** *  channel and end of scan for the case of multiple channels. It acts
 431:.\Generated_Source\PSoC4/ADC.c **** *  as a software version of the EOC. This function provides the
 432:.\Generated_Source\PSoC4/ADC.c **** *  programmer with two options. In one mode this function
 433:.\Generated_Source\PSoC4/ADC.c **** *  immediately returns with the conversion status. In the other mode,
 434:.\Generated_Source\PSoC4/ADC.c **** *  the function does not return (blocking) until the conversion has
 435:.\Generated_Source\PSoC4/ADC.c **** *  completed.
 436:.\Generated_Source\PSoC4/ADC.c **** *
 437:.\Generated_Source\PSoC4/ADC.c **** * Parameters:
 438:.\Generated_Source\PSoC4/ADC.c **** *  ADC_RETURN_STATUS        -> Immediately returns conversion result status
 439:.\Generated_Source\PSoC4/ADC.c **** *  ADC_WAIT_FOR_RESULT      -> Does not return until ADC complete
 440:.\Generated_Source\PSoC4/ADC.c **** *  ADC_RETURN_STATUS_INJ    -> Immediately returns conversion result status
 441:.\Generated_Source\PSoC4/ADC.c **** *                              for injection channel
 442:.\Generated_Source\PSoC4/ADC.c **** *  ADC_WAIT_FOR_RESULT_INJ  -> Does not return until ADC completes injection
 443:.\Generated_Source\PSoC4/ADC.c **** *                              channel conversion
 444:.\Generated_Source\PSoC4/ADC.c **** *
 445:.\Generated_Source\PSoC4/ADC.c **** * Return:
 446:.\Generated_Source\PSoC4/ADC.c **** *  If a non-zero value is returned, the last conversion or scan has completed.
 447:.\Generated_Source\PSoC4/ADC.c **** *  If the returned value is zero, the ADC is still in the process of a scan.
 448:.\Generated_Source\PSoC4/ADC.c **** *
 449:.\Generated_Source\PSoC4/ADC.c **** *******************************************************************************/
 450:.\Generated_Source\PSoC4/ADC.c **** uint32 ADC_IsEndConversion(uint32 retMode)
 451:.\Generated_Source\PSoC4/ADC.c **** {
 446              		.loc 1 451 0
 447              		.cfi_startproc
 448              	.LVL24:
 449 0000 021C     		mov	r2, r0
 450              	.LVL25:
ARM GAS  C:\Users\Svilen\AppData\Local\Temp\ccj4G4Lh.s 			page 17


 452:.\Generated_Source\PSoC4/ADC.c ****     uint32 status = 0u;
 453:.\Generated_Source\PSoC4/ADC.c **** 
 454:.\Generated_Source\PSoC4/ADC.c ****     if((retMode & (ADC_RETURN_STATUS | ADC_WAIT_FOR_RESULT)) != 0u)
 451              		.loc 1 454 0
 452 0002 8307     		lsl	r3, r0, #30
 453 0004 0CD0     		beq	.L35
 454              	.LVL26:
 455              	.L34:
 455:.\Generated_Source\PSoC4/ADC.c ****     {
 456:.\Generated_Source\PSoC4/ADC.c ****         do
 457:.\Generated_Source\PSoC4/ADC.c ****         {
 458:.\Generated_Source\PSoC4/ADC.c ****             status = ADC_SAR_INTR_REG & ADC_EOS_MASK;
 456              		.loc 1 458 0 discriminator 2
 457 0006 074B     		ldr	r3, .L36
 458 0008 1B68     		ldr	r3, [r3]
 459 000a 0120     		mov	r0, #1
 460 000c 1840     		and	r0, r3
 461              	.LVL27:
 459:.\Generated_Source\PSoC4/ADC.c ****         }while((status == 0u) && ((retMode & ADC_WAIT_FOR_RESULT) != 0u));
 462              		.loc 1 459 0 discriminator 2
 463 000e 01D1     		bne	.L33
 464              		.loc 1 459 0 is_stmt 0 discriminator 1
 465 0010 9307     		lsl	r3, r2, #30
 466 0012 F8D4     		bmi	.L34
 467              	.L33:
 460:.\Generated_Source\PSoC4/ADC.c **** 
 461:.\Generated_Source\PSoC4/ADC.c ****         if(status != 0u)
 468              		.loc 1 461 0 is_stmt 1
 469 0014 0028     		cmp	r0, #0
 470 0016 04D0     		beq	.L32
 462:.\Generated_Source\PSoC4/ADC.c ****         {
 463:.\Generated_Source\PSoC4/ADC.c ****             /* Clear EOS bit */
 464:.\Generated_Source\PSoC4/ADC.c ****             ADC_SAR_INTR_REG = ADC_EOS_MASK;
 471              		.loc 1 464 0
 472 0018 0122     		mov	r2, #1
 473              	.LVL28:
 474 001a 024B     		ldr	r3, .L36
 475 001c 1A60     		str	r2, [r3]
 476 001e 00E0     		b	.L32
 477              	.LVL29:
 478              	.L35:
 452:.\Generated_Source\PSoC4/ADC.c **** 
 479              		.loc 1 452 0
 480 0020 0020     		mov	r0, #0
 481              	.LVL30:
 482              	.L32:
 465:.\Generated_Source\PSoC4/ADC.c ****         }
 466:.\Generated_Source\PSoC4/ADC.c ****     }
 467:.\Generated_Source\PSoC4/ADC.c **** 
 468:.\Generated_Source\PSoC4/ADC.c ****     #if(ADC_INJ_CHANNEL_ENABLED)
 469:.\Generated_Source\PSoC4/ADC.c ****         if((retMode & (ADC_RETURN_STATUS_INJ | ADC_WAIT_FOR_RESULT_INJ)) != 0u)
 470:.\Generated_Source\PSoC4/ADC.c ****         {
 471:.\Generated_Source\PSoC4/ADC.c ****             do
 472:.\Generated_Source\PSoC4/ADC.c ****             {
 473:.\Generated_Source\PSoC4/ADC.c ****                 status |= ADC_SAR_INTR_REG & ADC_INJ_EOC_MASK;
 474:.\Generated_Source\PSoC4/ADC.c ****             }while(((status & ADC_INJ_EOC_MASK) == 0u) &&
 475:.\Generated_Source\PSoC4/ADC.c ****                    ((retMode & ADC_WAIT_FOR_RESULT_INJ) != 0u));
ARM GAS  C:\Users\Svilen\AppData\Local\Temp\ccj4G4Lh.s 			page 18


 476:.\Generated_Source\PSoC4/ADC.c **** 
 477:.\Generated_Source\PSoC4/ADC.c ****             if((status & ADC_INJ_EOC_MASK) != 0u)
 478:.\Generated_Source\PSoC4/ADC.c ****             {
 479:.\Generated_Source\PSoC4/ADC.c ****                 /* Clear Injection EOS bit */
 480:.\Generated_Source\PSoC4/ADC.c ****                 ADC_SAR_INTR_REG = ADC_INJ_EOC_MASK;
 481:.\Generated_Source\PSoC4/ADC.c ****             }
 482:.\Generated_Source\PSoC4/ADC.c ****         }
 483:.\Generated_Source\PSoC4/ADC.c ****     #endif /* ADC_INJ_CHANNEL_ENABLED */
 484:.\Generated_Source\PSoC4/ADC.c **** 
 485:.\Generated_Source\PSoC4/ADC.c ****     return (status);
 486:.\Generated_Source\PSoC4/ADC.c **** }
 483              		.loc 1 486 0
 484              		@ sp needed
 485 0022 7047     		bx	lr
 486              	.L37:
 487              		.align	2
 488              	.L36:
 489 0024 10021A40 		.word	1075446288
 490              		.cfi_endproc
 491              	.LFE6:
 492              		.size	ADC_IsEndConversion, .-ADC_IsEndConversion
 493              		.section	.text.ADC_GetResult16,"ax",%progbits
 494              		.align	2
 495              		.global	ADC_GetResult16
 496              		.code	16
 497              		.thumb_func
 498              		.type	ADC_GetResult16, %function
 499              	ADC_GetResult16:
 500              	.LFB7:
 487:.\Generated_Source\PSoC4/ADC.c **** 
 488:.\Generated_Source\PSoC4/ADC.c **** 
 489:.\Generated_Source\PSoC4/ADC.c **** /*******************************************************************************
 490:.\Generated_Source\PSoC4/ADC.c **** * Function Name: ADC_GetResult16
 491:.\Generated_Source\PSoC4/ADC.c **** ********************************************************************************
 492:.\Generated_Source\PSoC4/ADC.c **** *
 493:.\Generated_Source\PSoC4/ADC.c **** * Summary:
 494:.\Generated_Source\PSoC4/ADC.c **** *  Gets the data available in the SAR DATA register.
 495:.\Generated_Source\PSoC4/ADC.c **** *
 496:.\Generated_Source\PSoC4/ADC.c **** * Parameters:
 497:.\Generated_Source\PSoC4/ADC.c **** *  chan: The ADC channel in which to return the result. The first channel
 498:.\Generated_Source\PSoC4/ADC.c **** *  is 0 and the injection channel if enabled is the number of valid channels.
 499:.\Generated_Source\PSoC4/ADC.c **** *
 500:.\Generated_Source\PSoC4/ADC.c **** * Return:
 501:.\Generated_Source\PSoC4/ADC.c **** *  Returns converted data as a signed 16-bit integer
 502:.\Generated_Source\PSoC4/ADC.c **** *
 503:.\Generated_Source\PSoC4/ADC.c **** *******************************************************************************/
 504:.\Generated_Source\PSoC4/ADC.c **** int16 ADC_GetResult16(uint32 chan)
 505:.\Generated_Source\PSoC4/ADC.c **** {
 501              		.loc 1 505 0
 502              		.cfi_startproc
 503              	.LVL31:
 504 0000 10B5     		push	{r4, lr}
 505              		.cfi_def_cfa_offset 8
 506              		.cfi_offset 4, -8
 507              		.cfi_offset 14, -4
 508 0002 041E     		sub	r4, r0, #0
 506:.\Generated_Source\PSoC4/ADC.c ****     uint32 result;
ARM GAS  C:\Users\Svilen\AppData\Local\Temp\ccj4G4Lh.s 			page 19


 507:.\Generated_Source\PSoC4/ADC.c **** 
 508:.\Generated_Source\PSoC4/ADC.c ****     /* Halt CPU in debug mode if channel is out of valid range */
 509:.\Generated_Source\PSoC4/ADC.c ****     CYASSERT(chan < ADC_TOTAL_CHANNELS_NUM);
 509              		.loc 1 509 0
 510 0004 012C     		cmp	r4, #1
 511 0006 02D9     		bls	.L39
 512              		.loc 1 509 0 is_stmt 0 discriminator 1
 513 0008 0020     		mov	r0, #0
 514              	.LVL32:
 515 000a FFF7FEFF 		bl	CyHalt
 516              	.LVL33:
 517              	.L39:
 510:.\Generated_Source\PSoC4/ADC.c **** 
 511:.\Generated_Source\PSoC4/ADC.c ****     if(chan < ADC_SEQUENCED_CHANNELS_NUM)
 518              		.loc 1 511 0 is_stmt 1
 519 000e 012C     		cmp	r4, #1
 520 0010 07D8     		bhi	.L41
 512:.\Generated_Source\PSoC4/ADC.c ****     {
 513:.\Generated_Source\PSoC4/ADC.c ****         result = CY_GET_REG32((reg32 *)(ADC_SAR_CHAN_RESULT_IND + (uint32)(chan << 2u))) &
 521              		.loc 1 513 0
 522 0012 A400     		lsl	r4, r4, #2
 523              	.LVL34:
 524 0014 044B     		ldr	r3, .L42
 525 0016 9C46     		mov	ip, r3
 526 0018 6444     		add	r4, r4, ip
 527 001a 2068     		ldr	r0, [r4]
 528 001c 0004     		lsl	r0, r0, #16
 529 001e 000C     		lsr	r0, r0, #16
 530              	.LVL35:
 531 0020 00E0     		b	.L40
 532              	.LVL36:
 533              	.L41:
 514:.\Generated_Source\PSoC4/ADC.c ****                 ADC_RESULT_MASK;
 515:.\Generated_Source\PSoC4/ADC.c ****     }
 516:.\Generated_Source\PSoC4/ADC.c ****     else
 517:.\Generated_Source\PSoC4/ADC.c ****     {
 518:.\Generated_Source\PSoC4/ADC.c ****         #if(ADC_INJ_CHANNEL_ENABLED)
 519:.\Generated_Source\PSoC4/ADC.c ****             result = ADC_SAR_INJ_RESULT_REG & ADC_RESULT_MASK;
 520:.\Generated_Source\PSoC4/ADC.c ****         #else
 521:.\Generated_Source\PSoC4/ADC.c ****             result = 0u;
 534              		.loc 1 521 0
 535 0022 0020     		mov	r0, #0
 536              	.LVL37:
 537              	.L40:
 522:.\Generated_Source\PSoC4/ADC.c ****         #endif /* ADC_INJ_CHANNEL_ENABLED */
 523:.\Generated_Source\PSoC4/ADC.c ****     }
 524:.\Generated_Source\PSoC4/ADC.c **** 
 525:.\Generated_Source\PSoC4/ADC.c ****     return ( (int16)result );
 538              		.loc 1 525 0
 539 0024 00B2     		sxth	r0, r0
 540              	.LVL38:
 526:.\Generated_Source\PSoC4/ADC.c **** }
 541              		.loc 1 526 0
 542              		@ sp needed
 543 0026 10BD     		pop	{r4, pc}
 544              	.L43:
 545              		.align	2
ARM GAS  C:\Users\Svilen\AppData\Local\Temp\ccj4G4Lh.s 			page 20


 546              	.L42:
 547 0028 80011A40 		.word	1075446144
 548              		.cfi_endproc
 549              	.LFE7:
 550              		.size	ADC_GetResult16, .-ADC_GetResult16
 551              		.section	.text.ADC_SetChanMask,"ax",%progbits
 552              		.align	2
 553              		.global	ADC_SetChanMask
 554              		.code	16
 555              		.thumb_func
 556              		.type	ADC_SetChanMask, %function
 557              	ADC_SetChanMask:
 558              	.LFB8:
 527:.\Generated_Source\PSoC4/ADC.c **** 
 528:.\Generated_Source\PSoC4/ADC.c **** 
 529:.\Generated_Source\PSoC4/ADC.c **** /*******************************************************************************
 530:.\Generated_Source\PSoC4/ADC.c **** * Function Name: ADC_SetChanMask
 531:.\Generated_Source\PSoC4/ADC.c **** ********************************************************************************
 532:.\Generated_Source\PSoC4/ADC.c **** *
 533:.\Generated_Source\PSoC4/ADC.c **** * Summary:
 534:.\Generated_Source\PSoC4/ADC.c **** *  Sets the channel enable mask.
 535:.\Generated_Source\PSoC4/ADC.c **** *
 536:.\Generated_Source\PSoC4/ADC.c **** * Parameters:
 537:.\Generated_Source\PSoC4/ADC.c **** *  mask: Sets which channels that will be
 538:.\Generated_Source\PSoC4/ADC.c **** *  scanned. Setting bits for channels that do not exist will have no
 539:.\Generated_Source\PSoC4/ADC.c **** *  effect. For example, if only 6 channels were enabled, setting a
 540:.\Generated_Source\PSoC4/ADC.c **** *  mask of 0x0103 would only enable the last two channels (0 and 1).
 541:.\Generated_Source\PSoC4/ADC.c **** *  This API will not enable the injection channel.
 542:.\Generated_Source\PSoC4/ADC.c **** *  Examples: If the component is setup to sequence through 8
 543:.\Generated_Source\PSoC4/ADC.c **** *  channels, a mask of 0x000F would enable channels 0, 1, 2, and 3.
 544:.\Generated_Source\PSoC4/ADC.c **** *
 545:.\Generated_Source\PSoC4/ADC.c **** * Return:
 546:.\Generated_Source\PSoC4/ADC.c **** *  None.
 547:.\Generated_Source\PSoC4/ADC.c **** *
 548:.\Generated_Source\PSoC4/ADC.c **** *******************************************************************************/
 549:.\Generated_Source\PSoC4/ADC.c **** void ADC_SetChanMask(uint32 mask)
 550:.\Generated_Source\PSoC4/ADC.c **** {
 559              		.loc 1 550 0
 560              		.cfi_startproc
 561              	.LVL39:
 551:.\Generated_Source\PSoC4/ADC.c ****     ADC_SAR_CHAN_EN_REG = mask & ADC_MAX_CHANNELS_EN_MASK;
 562              		.loc 1 551 0
 563 0000 0323     		mov	r3, #3
 564 0002 1840     		and	r0, r3
 565              	.LVL40:
 566 0004 014B     		ldr	r3, .L45
 567 0006 1860     		str	r0, [r3]
 552:.\Generated_Source\PSoC4/ADC.c **** }
 568              		.loc 1 552 0
 569              		@ sp needed
 570 0008 7047     		bx	lr
 571              	.L46:
 572 000a C046     		.align	2
 573              	.L45:
 574 000c 20001A40 		.word	1075445792
 575              		.cfi_endproc
 576              	.LFE8:
ARM GAS  C:\Users\Svilen\AppData\Local\Temp\ccj4G4Lh.s 			page 21


 577              		.size	ADC_SetChanMask, .-ADC_SetChanMask
 578              		.section	.text.ADC_SetLowLimit,"ax",%progbits
 579              		.align	2
 580              		.global	ADC_SetLowLimit
 581              		.code	16
 582              		.thumb_func
 583              		.type	ADC_SetLowLimit, %function
 584              	ADC_SetLowLimit:
 585              	.LFB9:
 553:.\Generated_Source\PSoC4/ADC.c **** 
 554:.\Generated_Source\PSoC4/ADC.c **** #if(ADC_INJ_CHANNEL_ENABLED)
 555:.\Generated_Source\PSoC4/ADC.c **** 
 556:.\Generated_Source\PSoC4/ADC.c **** 
 557:.\Generated_Source\PSoC4/ADC.c ****     /*******************************************************************************
 558:.\Generated_Source\PSoC4/ADC.c ****     * Function Name: ADC_EnableInjection
 559:.\Generated_Source\PSoC4/ADC.c ****     ********************************************************************************
 560:.\Generated_Source\PSoC4/ADC.c ****     *
 561:.\Generated_Source\PSoC4/ADC.c ****     * Summary:
 562:.\Generated_Source\PSoC4/ADC.c ****     *  Enables the injection channel for the next scan only.
 563:.\Generated_Source\PSoC4/ADC.c ****     *
 564:.\Generated_Source\PSoC4/ADC.c ****     * Parameters:
 565:.\Generated_Source\PSoC4/ADC.c ****     *  None.
 566:.\Generated_Source\PSoC4/ADC.c ****     *
 567:.\Generated_Source\PSoC4/ADC.c ****     * Return:
 568:.\Generated_Source\PSoC4/ADC.c ****     *  None.
 569:.\Generated_Source\PSoC4/ADC.c ****     *
 570:.\Generated_Source\PSoC4/ADC.c ****     *******************************************************************************/
 571:.\Generated_Source\PSoC4/ADC.c ****     void ADC_EnableInjection(void)
 572:.\Generated_Source\PSoC4/ADC.c ****     {
 573:.\Generated_Source\PSoC4/ADC.c ****         ADC_SAR_INJ_CHAN_CONFIG_REG |= ADC_INJ_CHAN_EN;
 574:.\Generated_Source\PSoC4/ADC.c ****     }
 575:.\Generated_Source\PSoC4/ADC.c **** 
 576:.\Generated_Source\PSoC4/ADC.c **** #endif /* ADC_INJ_CHANNEL_ENABLED */
 577:.\Generated_Source\PSoC4/ADC.c **** 
 578:.\Generated_Source\PSoC4/ADC.c **** 
 579:.\Generated_Source\PSoC4/ADC.c **** /*******************************************************************************
 580:.\Generated_Source\PSoC4/ADC.c **** * Function Name: ADC_SetLowLimit
 581:.\Generated_Source\PSoC4/ADC.c **** ********************************************************************************
 582:.\Generated_Source\PSoC4/ADC.c **** *
 583:.\Generated_Source\PSoC4/ADC.c **** * Summary:
 584:.\Generated_Source\PSoC4/ADC.c **** *  Sets the low limit parameter for a limit condition.
 585:.\Generated_Source\PSoC4/ADC.c **** *
 586:.\Generated_Source\PSoC4/ADC.c **** * Parameters:
 587:.\Generated_Source\PSoC4/ADC.c **** *  lowLimit: The low limit for a limit condition.
 588:.\Generated_Source\PSoC4/ADC.c **** *
 589:.\Generated_Source\PSoC4/ADC.c **** * Return:
 590:.\Generated_Source\PSoC4/ADC.c **** *  None.
 591:.\Generated_Source\PSoC4/ADC.c **** *
 592:.\Generated_Source\PSoC4/ADC.c **** *******************************************************************************/
 593:.\Generated_Source\PSoC4/ADC.c **** void ADC_SetLowLimit(uint32 lowLimit)
 594:.\Generated_Source\PSoC4/ADC.c **** {
 586              		.loc 1 594 0
 587              		.cfi_startproc
 588              	.LVL41:
 595:.\Generated_Source\PSoC4/ADC.c ****     ADC_SAR_RANGE_THRES_REG &= (uint32)(~ADC_RANGE_LOW_MASK);
 589              		.loc 1 595 0
 590 0000 054A     		ldr	r2, .L48
ARM GAS  C:\Users\Svilen\AppData\Local\Temp\ccj4G4Lh.s 			page 22


 591 0002 1368     		ldr	r3, [r2]
 592 0004 1B0C     		lsr	r3, r3, #16
 593 0006 1B04     		lsl	r3, r3, #16
 594 0008 1360     		str	r3, [r2]
 596:.\Generated_Source\PSoC4/ADC.c ****     ADC_SAR_RANGE_THRES_REG |= lowLimit & ADC_RANGE_LOW_MASK;
 595              		.loc 1 596 0
 596 000a 1368     		ldr	r3, [r2]
 597 000c 0004     		lsl	r0, r0, #16
 598              	.LVL42:
 599 000e 000C     		lsr	r0, r0, #16
 600 0010 1843     		orr	r0, r3
 601 0012 1060     		str	r0, [r2]
 597:.\Generated_Source\PSoC4/ADC.c **** }
 602              		.loc 1 597 0
 603              		@ sp needed
 604 0014 7047     		bx	lr
 605              	.L49:
 606 0016 C046     		.align	2
 607              	.L48:
 608 0018 18001A40 		.word	1075445784
 609              		.cfi_endproc
 610              	.LFE9:
 611              		.size	ADC_SetLowLimit, .-ADC_SetLowLimit
 612              		.section	.text.ADC_SetHighLimit,"ax",%progbits
 613              		.align	2
 614              		.global	ADC_SetHighLimit
 615              		.code	16
 616              		.thumb_func
 617              		.type	ADC_SetHighLimit, %function
 618              	ADC_SetHighLimit:
 619              	.LFB10:
 598:.\Generated_Source\PSoC4/ADC.c **** 
 599:.\Generated_Source\PSoC4/ADC.c **** 
 600:.\Generated_Source\PSoC4/ADC.c **** /*******************************************************************************
 601:.\Generated_Source\PSoC4/ADC.c **** * Function Name: ADC_SetHighLimit
 602:.\Generated_Source\PSoC4/ADC.c **** ********************************************************************************
 603:.\Generated_Source\PSoC4/ADC.c **** *
 604:.\Generated_Source\PSoC4/ADC.c **** * Summary:
 605:.\Generated_Source\PSoC4/ADC.c **** *  Sets the low limit parameter for a limit condition.
 606:.\Generated_Source\PSoC4/ADC.c **** *
 607:.\Generated_Source\PSoC4/ADC.c **** * Parameters:
 608:.\Generated_Source\PSoC4/ADC.c **** *  highLimit: The high limit for a limit condition.
 609:.\Generated_Source\PSoC4/ADC.c **** *
 610:.\Generated_Source\PSoC4/ADC.c **** * Return:
 611:.\Generated_Source\PSoC4/ADC.c **** *  None.
 612:.\Generated_Source\PSoC4/ADC.c **** *
 613:.\Generated_Source\PSoC4/ADC.c **** *******************************************************************************/
 614:.\Generated_Source\PSoC4/ADC.c **** void ADC_SetHighLimit(uint32 highLimit)
 615:.\Generated_Source\PSoC4/ADC.c **** {
 620              		.loc 1 615 0
 621              		.cfi_startproc
 622              	.LVL43:
 616:.\Generated_Source\PSoC4/ADC.c ****     ADC_SAR_RANGE_THRES_REG &= (uint32)(~ADC_RANGE_HIGH_MASK);
 623              		.loc 1 616 0
 624 0000 044A     		ldr	r2, .L51
 625 0002 1368     		ldr	r3, [r2]
 626 0004 1B04     		lsl	r3, r3, #16
ARM GAS  C:\Users\Svilen\AppData\Local\Temp\ccj4G4Lh.s 			page 23


 627 0006 1B0C     		lsr	r3, r3, #16
 628 0008 1360     		str	r3, [r2]
 617:.\Generated_Source\PSoC4/ADC.c ****     ADC_SAR_RANGE_THRES_REG |= (uint32)(highLimit << ADC_RANGE_HIGH_OFFSET);
 629              		.loc 1 617 0
 630 000a 1368     		ldr	r3, [r2]
 631 000c 0004     		lsl	r0, r0, #16
 632              	.LVL44:
 633 000e 1843     		orr	r0, r3
 634 0010 1060     		str	r0, [r2]
 618:.\Generated_Source\PSoC4/ADC.c **** }
 635              		.loc 1 618 0
 636              		@ sp needed
 637 0012 7047     		bx	lr
 638              	.L52:
 639              		.align	2
 640              	.L51:
 641 0014 18001A40 		.word	1075445784
 642              		.cfi_endproc
 643              	.LFE10:
 644              		.size	ADC_SetHighLimit, .-ADC_SetHighLimit
 645              		.section	.text.ADC_SetLimitMask,"ax",%progbits
 646              		.align	2
 647              		.global	ADC_SetLimitMask
 648              		.code	16
 649              		.thumb_func
 650              		.type	ADC_SetLimitMask, %function
 651              	ADC_SetLimitMask:
 652              	.LFB11:
 619:.\Generated_Source\PSoC4/ADC.c **** 
 620:.\Generated_Source\PSoC4/ADC.c **** 
 621:.\Generated_Source\PSoC4/ADC.c **** /*******************************************************************************
 622:.\Generated_Source\PSoC4/ADC.c **** * Function Name: ADC_SetLimitMask
 623:.\Generated_Source\PSoC4/ADC.c **** ********************************************************************************
 624:.\Generated_Source\PSoC4/ADC.c **** *
 625:.\Generated_Source\PSoC4/ADC.c **** * Summary:
 626:.\Generated_Source\PSoC4/ADC.c **** *  Sets the channel limit condition mask.
 627:.\Generated_Source\PSoC4/ADC.c **** *
 628:.\Generated_Source\PSoC4/ADC.c **** * Parameters:
 629:.\Generated_Source\PSoC4/ADC.c **** *  mask: Sets which channels that may cause a
 630:.\Generated_Source\PSoC4/ADC.c **** *  limit condition interrupt. Setting bits for channels that do not exist
 631:.\Generated_Source\PSoC4/ADC.c **** *  will have no effect. For example, if only 6 channels were enabled,
 632:.\Generated_Source\PSoC4/ADC.c **** *  setting a mask of 0x0103 would only enable the last two channels (0 and 1).
 633:.\Generated_Source\PSoC4/ADC.c **** *
 634:.\Generated_Source\PSoC4/ADC.c **** * Return:
 635:.\Generated_Source\PSoC4/ADC.c **** *  None.
 636:.\Generated_Source\PSoC4/ADC.c **** *
 637:.\Generated_Source\PSoC4/ADC.c **** *******************************************************************************/
 638:.\Generated_Source\PSoC4/ADC.c **** void ADC_SetLimitMask(uint32 mask)
 639:.\Generated_Source\PSoC4/ADC.c **** {
 653              		.loc 1 639 0
 654              		.cfi_startproc
 655              	.LVL45:
 640:.\Generated_Source\PSoC4/ADC.c ****     ADC_SAR_RANGE_INTR_MASK_REG = mask & ADC_MAX_CHANNELS_EN_MASK;
 656              		.loc 1 640 0
 657 0000 0323     		mov	r3, #3
 658 0002 1840     		and	r0, r3
 659              	.LVL46:
ARM GAS  C:\Users\Svilen\AppData\Local\Temp\ccj4G4Lh.s 			page 24


 660 0004 014B     		ldr	r3, .L54
 661 0006 1860     		str	r0, [r3]
 641:.\Generated_Source\PSoC4/ADC.c **** }
 662              		.loc 1 641 0
 663              		@ sp needed
 664 0008 7047     		bx	lr
 665              	.L55:
 666 000a C046     		.align	2
 667              	.L54:
 668 000c 38021A40 		.word	1075446328
 669              		.cfi_endproc
 670              	.LFE11:
 671              		.size	ADC_SetLimitMask, .-ADC_SetLimitMask
 672              		.section	.text.ADC_SetSatMask,"ax",%progbits
 673              		.align	2
 674              		.global	ADC_SetSatMask
 675              		.code	16
 676              		.thumb_func
 677              		.type	ADC_SetSatMask, %function
 678              	ADC_SetSatMask:
 679              	.LFB12:
 642:.\Generated_Source\PSoC4/ADC.c **** 
 643:.\Generated_Source\PSoC4/ADC.c **** 
 644:.\Generated_Source\PSoC4/ADC.c **** /*******************************************************************************
 645:.\Generated_Source\PSoC4/ADC.c **** * Function Name: ADC_SetSatMask
 646:.\Generated_Source\PSoC4/ADC.c **** ********************************************************************************
 647:.\Generated_Source\PSoC4/ADC.c **** *
 648:.\Generated_Source\PSoC4/ADC.c **** * Summary:
 649:.\Generated_Source\PSoC4/ADC.c **** *  Sets the channel saturation event mask.
 650:.\Generated_Source\PSoC4/ADC.c **** *
 651:.\Generated_Source\PSoC4/ADC.c **** * Parameters:
 652:.\Generated_Source\PSoC4/ADC.c **** *  mask: Sets which channels that may cause a
 653:.\Generated_Source\PSoC4/ADC.c **** *  saturation event interrupt. Setting bits for channels that do not exist
 654:.\Generated_Source\PSoC4/ADC.c **** *  will have no effect. For example, if only 8 channels were enabled,
 655:.\Generated_Source\PSoC4/ADC.c **** *  setting a mask of 0x01C0 would only enable two channels (6 and 7).
 656:.\Generated_Source\PSoC4/ADC.c **** *
 657:.\Generated_Source\PSoC4/ADC.c **** * Return:
 658:.\Generated_Source\PSoC4/ADC.c **** *  None.
 659:.\Generated_Source\PSoC4/ADC.c **** *
 660:.\Generated_Source\PSoC4/ADC.c **** *******************************************************************************/
 661:.\Generated_Source\PSoC4/ADC.c **** void ADC_SetSatMask(uint32 mask)
 662:.\Generated_Source\PSoC4/ADC.c **** {
 680              		.loc 1 662 0
 681              		.cfi_startproc
 682              	.LVL47:
 663:.\Generated_Source\PSoC4/ADC.c ****     ADC_SAR_SATURATE_INTR_MASK_REG = mask & ADC_MAX_CHANNELS_EN_MASK;
 683              		.loc 1 663 0
 684 0000 0323     		mov	r3, #3
 685 0002 1840     		and	r0, r3
 686              	.LVL48:
 687 0004 014B     		ldr	r3, .L57
 688 0006 1860     		str	r0, [r3]
 664:.\Generated_Source\PSoC4/ADC.c **** }
 689              		.loc 1 664 0
 690              		@ sp needed
 691 0008 7047     		bx	lr
 692              	.L58:
ARM GAS  C:\Users\Svilen\AppData\Local\Temp\ccj4G4Lh.s 			page 25


 693 000a C046     		.align	2
 694              	.L57:
 695 000c 28021A40 		.word	1075446312
 696              		.cfi_endproc
 697              	.LFE12:
 698              		.size	ADC_SetSatMask, .-ADC_SetSatMask
 699              		.section	.text.ADC_SetOffset,"ax",%progbits
 700              		.align	2
 701              		.global	ADC_SetOffset
 702              		.code	16
 703              		.thumb_func
 704              		.type	ADC_SetOffset, %function
 705              	ADC_SetOffset:
 706              	.LFB13:
 665:.\Generated_Source\PSoC4/ADC.c **** 
 666:.\Generated_Source\PSoC4/ADC.c **** 
 667:.\Generated_Source\PSoC4/ADC.c **** /*******************************************************************************
 668:.\Generated_Source\PSoC4/ADC.c **** * Function Name: ADC_SetOffset
 669:.\Generated_Source\PSoC4/ADC.c **** ********************************************************************************
 670:.\Generated_Source\PSoC4/ADC.c **** *
 671:.\Generated_Source\PSoC4/ADC.c **** * Summary:
 672:.\Generated_Source\PSoC4/ADC.c **** *   Description: Sets the ADC offset which is used by the functions
 673:.\Generated_Source\PSoC4/ADC.c **** *   ADC_CountsTo_uVolts, ADC_CountsTo_mVolts and ADC_CountsTo_Volts
 674:.\Generated_Source\PSoC4/ADC.c **** *   to substract the offset from the given reading
 675:.\Generated_Source\PSoC4/ADC.c **** *   before calculating the voltage conversion.
 676:.\Generated_Source\PSoC4/ADC.c **** *
 677:.\Generated_Source\PSoC4/ADC.c **** * Parameters:
 678:.\Generated_Source\PSoC4/ADC.c **** *  chan: ADC channel number.
 679:.\Generated_Source\PSoC4/ADC.c **** *  offset: This value is a measured value when the
 680:.\Generated_Source\PSoC4/ADC.c **** *          inputs are shorted or connected to the same input voltage.
 681:.\Generated_Source\PSoC4/ADC.c **** *
 682:.\Generated_Source\PSoC4/ADC.c **** * Return:
 683:.\Generated_Source\PSoC4/ADC.c **** *  None.
 684:.\Generated_Source\PSoC4/ADC.c **** *
 685:.\Generated_Source\PSoC4/ADC.c **** * Global variables:
 686:.\Generated_Source\PSoC4/ADC.c **** *  ADC_Offset:  Modified to set the user provided offset.
 687:.\Generated_Source\PSoC4/ADC.c **** *
 688:.\Generated_Source\PSoC4/ADC.c **** *******************************************************************************/
 689:.\Generated_Source\PSoC4/ADC.c **** void ADC_SetOffset(uint32 chan, int16 offset)
 690:.\Generated_Source\PSoC4/ADC.c **** {
 707              		.loc 1 690 0
 708              		.cfi_startproc
 709              	.LVL49:
 710 0000 38B5     		push	{r3, r4, r5, lr}
 711              		.cfi_def_cfa_offset 16
 712              		.cfi_offset 3, -16
 713              		.cfi_offset 4, -12
 714              		.cfi_offset 5, -8
 715              		.cfi_offset 14, -4
 716 0002 041C     		mov	r4, r0
 717 0004 0D1C     		mov	r5, r1
 691:.\Generated_Source\PSoC4/ADC.c ****     /* Halt CPU in debug mode if channel is out of valid range */
 692:.\Generated_Source\PSoC4/ADC.c ****     CYASSERT(chan < ADC_TOTAL_CHANNELS_NUM);
 718              		.loc 1 692 0
 719 0006 0128     		cmp	r0, #1
 720 0008 02D9     		bls	.L60
 721              		.loc 1 692 0 is_stmt 0 discriminator 1
ARM GAS  C:\Users\Svilen\AppData\Local\Temp\ccj4G4Lh.s 			page 26


 722 000a 0020     		mov	r0, #0
 723              	.LVL50:
 724 000c FFF7FEFF 		bl	CyHalt
 725              	.LVL51:
 726              	.L60:
 693:.\Generated_Source\PSoC4/ADC.c **** 
 694:.\Generated_Source\PSoC4/ADC.c ****     ADC_offset[chan] = offset;
 727              		.loc 1 694 0 is_stmt 1
 728 0010 6400     		lsl	r4, r4, #1
 729              	.LVL52:
 730 0012 014B     		ldr	r3, .L61
 731 0014 E552     		strh	r5, [r4, r3]
 695:.\Generated_Source\PSoC4/ADC.c **** }
 732              		.loc 1 695 0
 733              		@ sp needed
 734 0016 38BD     		pop	{r3, r4, r5, pc}
 735              	.L62:
 736              		.align	2
 737              	.L61:
 738 0018 00000000 		.word	ADC_offset
 739              		.cfi_endproc
 740              	.LFE13:
 741              		.size	ADC_SetOffset, .-ADC_SetOffset
 742              		.section	.text.ADC_SetGain,"ax",%progbits
 743              		.align	2
 744              		.global	ADC_SetGain
 745              		.code	16
 746              		.thumb_func
 747              		.type	ADC_SetGain, %function
 748              	ADC_SetGain:
 749              	.LFB14:
 696:.\Generated_Source\PSoC4/ADC.c **** 
 697:.\Generated_Source\PSoC4/ADC.c **** 
 698:.\Generated_Source\PSoC4/ADC.c **** /*******************************************************************************
 699:.\Generated_Source\PSoC4/ADC.c **** * Function Name: ADC_SetGain
 700:.\Generated_Source\PSoC4/ADC.c **** ********************************************************************************
 701:.\Generated_Source\PSoC4/ADC.c **** *
 702:.\Generated_Source\PSoC4/ADC.c **** * Summary:
 703:.\Generated_Source\PSoC4/ADC.c **** *  Description: Sets the ADC gain in counts per 10 volt for the voltage
 704:.\Generated_Source\PSoC4/ADC.c **** *  conversion functions below. This value is set by default by the
 705:.\Generated_Source\PSoC4/ADC.c **** *  reference and input range settings. It should only be used to further
 706:.\Generated_Source\PSoC4/ADC.c **** *  calibrate the ADC with a known input or if an external reference is
 707:.\Generated_Source\PSoC4/ADC.c **** *  used. Affects the ADC_CountsTo_uVolts, ADC_CountsTo_mVolts
 708:.\Generated_Source\PSoC4/ADC.c **** *  and ADC_CountsTo_Volts functions by supplying the correct
 709:.\Generated_Source\PSoC4/ADC.c **** *  conversion between ADC counts and voltage.
 710:.\Generated_Source\PSoC4/ADC.c **** *
 711:.\Generated_Source\PSoC4/ADC.c **** * Parameters:
 712:.\Generated_Source\PSoC4/ADC.c **** *  chan: ADC channel number.
 713:.\Generated_Source\PSoC4/ADC.c **** *  adcGain: ADC gain in counts per 10 volts.
 714:.\Generated_Source\PSoC4/ADC.c **** *
 715:.\Generated_Source\PSoC4/ADC.c **** * Return:
 716:.\Generated_Source\PSoC4/ADC.c **** *  None.
 717:.\Generated_Source\PSoC4/ADC.c **** *
 718:.\Generated_Source\PSoC4/ADC.c **** * Global variables:
 719:.\Generated_Source\PSoC4/ADC.c **** *  ADC_CountsPer10Volt:  modified to set the ADC gain in counts
 720:.\Generated_Source\PSoC4/ADC.c **** *   per 10 volt.
 721:.\Generated_Source\PSoC4/ADC.c **** *
ARM GAS  C:\Users\Svilen\AppData\Local\Temp\ccj4G4Lh.s 			page 27


 722:.\Generated_Source\PSoC4/ADC.c **** *******************************************************************************/
 723:.\Generated_Source\PSoC4/ADC.c **** void ADC_SetGain(uint32 chan, int32 adcGain)
 724:.\Generated_Source\PSoC4/ADC.c **** {
 750              		.loc 1 724 0
 751              		.cfi_startproc
 752              	.LVL53:
 753 0000 38B5     		push	{r3, r4, r5, lr}
 754              		.cfi_def_cfa_offset 16
 755              		.cfi_offset 3, -16
 756              		.cfi_offset 4, -12
 757              		.cfi_offset 5, -8
 758              		.cfi_offset 14, -4
 759 0002 041C     		mov	r4, r0
 760 0004 0D1C     		mov	r5, r1
 725:.\Generated_Source\PSoC4/ADC.c ****     /* Halt CPU in debug mode if channel is out of valid range */
 726:.\Generated_Source\PSoC4/ADC.c ****     CYASSERT(chan < ADC_TOTAL_CHANNELS_NUM);
 761              		.loc 1 726 0
 762 0006 0128     		cmp	r0, #1
 763 0008 02D9     		bls	.L64
 764              		.loc 1 726 0 is_stmt 0 discriminator 1
 765 000a 0020     		mov	r0, #0
 766              	.LVL54:
 767 000c FFF7FEFF 		bl	CyHalt
 768              	.LVL55:
 769              	.L64:
 727:.\Generated_Source\PSoC4/ADC.c **** 
 728:.\Generated_Source\PSoC4/ADC.c ****     ADC_countsPer10Volt[chan] = adcGain;
 770              		.loc 1 728 0 is_stmt 1
 771 0010 A400     		lsl	r4, r4, #2
 772              	.LVL56:
 773 0012 014B     		ldr	r3, .L65
 774 0014 E550     		str	r5, [r4, r3]
 729:.\Generated_Source\PSoC4/ADC.c **** }
 775              		.loc 1 729 0
 776              		@ sp needed
 777              	.LVL57:
 778 0016 38BD     		pop	{r3, r4, r5, pc}
 779              	.L66:
 780              		.align	2
 781              	.L65:
 782 0018 00000000 		.word	ADC_countsPer10Volt
 783              		.cfi_endproc
 784              	.LFE14:
 785              		.size	ADC_SetGain, .-ADC_SetGain
 786              		.section	.text.ADC_CountsTo_mVolts,"ax",%progbits
 787              		.align	2
 788              		.global	ADC_CountsTo_mVolts
 789              		.code	16
 790              		.thumb_func
 791              		.type	ADC_CountsTo_mVolts, %function
 792              	ADC_CountsTo_mVolts:
 793              	.LFB15:
 730:.\Generated_Source\PSoC4/ADC.c **** 
 731:.\Generated_Source\PSoC4/ADC.c **** 
 732:.\Generated_Source\PSoC4/ADC.c **** #if(ADC_DEFAULT_JUSTIFICATION_SEL == ADC__RIGHT)
 733:.\Generated_Source\PSoC4/ADC.c **** 
 734:.\Generated_Source\PSoC4/ADC.c **** 
ARM GAS  C:\Users\Svilen\AppData\Local\Temp\ccj4G4Lh.s 			page 28


 735:.\Generated_Source\PSoC4/ADC.c ****     /*******************************************************************************
 736:.\Generated_Source\PSoC4/ADC.c ****     * Function Name: ADC_CountsTo_mVolts
 737:.\Generated_Source\PSoC4/ADC.c ****     ********************************************************************************
 738:.\Generated_Source\PSoC4/ADC.c ****     *
 739:.\Generated_Source\PSoC4/ADC.c ****     * Summary:
 740:.\Generated_Source\PSoC4/ADC.c ****     *  This function converts ADC counts to mVolts
 741:.\Generated_Source\PSoC4/ADC.c ****     *  This function is not available when left data format justification selected.
 742:.\Generated_Source\PSoC4/ADC.c ****     *
 743:.\Generated_Source\PSoC4/ADC.c ****     * Parameters:
 744:.\Generated_Source\PSoC4/ADC.c ****     *  chan: The ADC channel number.
 745:.\Generated_Source\PSoC4/ADC.c ****     *  adcCounts: Result from the ADC conversion
 746:.\Generated_Source\PSoC4/ADC.c ****     *
 747:.\Generated_Source\PSoC4/ADC.c ****     * Return:
 748:.\Generated_Source\PSoC4/ADC.c ****     *  Results in mVolts
 749:.\Generated_Source\PSoC4/ADC.c ****     *
 750:.\Generated_Source\PSoC4/ADC.c ****     * Global variables:
 751:.\Generated_Source\PSoC4/ADC.c ****     *  ADC_countsPer10Volt:  used to convert ADC counts to mVolts.
 752:.\Generated_Source\PSoC4/ADC.c ****     *  ADC_Offset:  Used as the offset while converting ADC counts
 753:.\Generated_Source\PSoC4/ADC.c ****     *   to mVolts.
 754:.\Generated_Source\PSoC4/ADC.c ****     *
 755:.\Generated_Source\PSoC4/ADC.c ****     *******************************************************************************/
 756:.\Generated_Source\PSoC4/ADC.c ****     int16 ADC_CountsTo_mVolts(uint32 chan, int16 adcCounts)
 757:.\Generated_Source\PSoC4/ADC.c ****     {
 794              		.loc 1 757 0
 795              		.cfi_startproc
 796              	.LVL58:
 797 0000 38B5     		push	{r3, r4, r5, lr}
 798              		.cfi_def_cfa_offset 16
 799              		.cfi_offset 3, -16
 800              		.cfi_offset 4, -12
 801              		.cfi_offset 5, -8
 802              		.cfi_offset 14, -4
 803 0002 041C     		mov	r4, r0
 804 0004 0D1C     		mov	r5, r1
 758:.\Generated_Source\PSoC4/ADC.c ****         int16 mVolts;
 759:.\Generated_Source\PSoC4/ADC.c **** 
 760:.\Generated_Source\PSoC4/ADC.c ****         /* Halt CPU in debug mode if channel is out of valid range */
 761:.\Generated_Source\PSoC4/ADC.c ****         CYASSERT(chan < ADC_TOTAL_CHANNELS_NUM);
 805              		.loc 1 761 0
 806 0006 0128     		cmp	r0, #1
 807 0008 02D9     		bls	.L68
 808              		.loc 1 761 0 is_stmt 0 discriminator 1
 809 000a 0020     		mov	r0, #0
 810              	.LVL59:
 811 000c FFF7FEFF 		bl	CyHalt
 812              	.LVL60:
 813              	.L68:
 762:.\Generated_Source\PSoC4/ADC.c **** 
 763:.\Generated_Source\PSoC4/ADC.c ****         /* Divide the adcCount when accumulate averaging mode selected */
 764:.\Generated_Source\PSoC4/ADC.c ****         #if(ADC_DEFAULT_AVG_MODE == ADC__ACCUMULATE)
 765:.\Generated_Source\PSoC4/ADC.c ****             if((ADC_channelsConfig[chan] & ADC_AVERAGING_EN) != 0u)
 766:.\Generated_Source\PSoC4/ADC.c ****             {
 767:.\Generated_Source\PSoC4/ADC.c ****                 adcCounts /= ADC_DEFAULT_AVG_SAMPLES_DIV;
 768:.\Generated_Source\PSoC4/ADC.c ****             }
 769:.\Generated_Source\PSoC4/ADC.c ****         #endif /* ADC_DEFAULT_AVG_MODE == ADC__ACCUMULATE */
 770:.\Generated_Source\PSoC4/ADC.c **** 
 771:.\Generated_Source\PSoC4/ADC.c ****         /* Subtract ADC offset */
ARM GAS  C:\Users\Svilen\AppData\Local\Temp\ccj4G4Lh.s 			page 29


 772:.\Generated_Source\PSoC4/ADC.c ****         adcCounts -= ADC_offset[chan];
 814              		.loc 1 772 0 is_stmt 1
 815 0010 6300     		lsl	r3, r4, #1
 816 0012 0F4A     		ldr	r2, .L71
 817 0014 995A     		ldrh	r1, [r3, r2]
 818 0016 691A     		sub	r1, r5, r1
 819 0018 09B2     		sxth	r1, r1
 820              	.LVL61:
 773:.\Generated_Source\PSoC4/ADC.c **** 
 774:.\Generated_Source\PSoC4/ADC.c ****         mVolts = (int16)((((int32)adcCounts * ADC_10MV_COUNTS) + ( (adcCounts > 0) ?
 821              		.loc 1 774 0
 822 001a 0E48     		ldr	r0, .L71+4
 823 001c 021C     		mov	r2, r0
 824 001e 4A43     		mul	r2, r1
 775:.\Generated_Source\PSoC4/ADC.c ****                  (ADC_countsPer10Volt[chan] / 2) : (-(ADC_countsPer10Volt[chan] / 2)) ))
 825              		.loc 1 775 0
 826 0020 0029     		cmp	r1, #0
 827 0022 06DD     		ble	.L69
 828              		.loc 1 775 0 is_stmt 0 discriminator 1
 829 0024 A300     		lsl	r3, r4, #2
 830 0026 0C49     		ldr	r1, .L71+8
 831              	.LVL62:
 832 0028 5B58     		ldr	r3, [r3, r1]
 833 002a D80F     		lsr	r0, r3, #31
 834 002c C018     		add	r0, r0, r3
 835 002e 4310     		asr	r3, r0, #1
 836 0030 06E0     		b	.L70
 837              	.LVL63:
 838              	.L69:
 839              		.loc 1 775 0 discriminator 2
 840 0032 A300     		lsl	r3, r4, #2
 841 0034 0849     		ldr	r1, .L71+8
 842              	.LVL64:
 843 0036 5B58     		ldr	r3, [r3, r1]
 844 0038 D80F     		lsr	r0, r3, #31
 845 003a C318     		add	r3, r0, r3
 846 003c 5B10     		asr	r3, r3, #1
 847 003e 5B42     		neg	r3, r3
 848              	.L70:
 774:.\Generated_Source\PSoC4/ADC.c ****                  (ADC_countsPer10Volt[chan] / 2) : (-(ADC_countsPer10Volt[chan] / 2)) ))
 849              		.loc 1 774 0 is_stmt 1
 850 0040 D018     		add	r0, r2, r3
 776:.\Generated_Source\PSoC4/ADC.c ****                  / ADC_countsPer10Volt[chan]);
 851              		.loc 1 776 0
 852 0042 A400     		lsl	r4, r4, #2
 853              	.LVL65:
 854 0044 044B     		ldr	r3, .L71+8
 855 0046 E158     		ldr	r1, [r4, r3]
 856 0048 FFF7FEFF 		bl	__aeabi_idiv
 857              	.LVL66:
 777:.\Generated_Source\PSoC4/ADC.c **** 
 778:.\Generated_Source\PSoC4/ADC.c ****         return( mVolts );
 858              		.loc 1 778 0
 859 004c 00B2     		sxth	r0, r0
 779:.\Generated_Source\PSoC4/ADC.c ****     }
 860              		.loc 1 779 0
 861              		@ sp needed
ARM GAS  C:\Users\Svilen\AppData\Local\Temp\ccj4G4Lh.s 			page 30


 862 004e 38BD     		pop	{r3, r4, r5, pc}
 863              	.L72:
 864              		.align	2
 865              	.L71:
 866 0050 00000000 		.word	ADC_offset
 867 0054 10270000 		.word	10000
 868 0058 00000000 		.word	ADC_countsPer10Volt
 869              		.cfi_endproc
 870              	.LFE15:
 871              		.size	ADC_CountsTo_mVolts, .-ADC_CountsTo_mVolts
 872              		.global	__aeabi_lmul
 873              		.global	__aeabi_ldivmod
 874              		.section	.text.ADC_CountsTo_uVolts,"ax",%progbits
 875              		.align	2
 876              		.global	ADC_CountsTo_uVolts
 877              		.code	16
 878              		.thumb_func
 879              		.type	ADC_CountsTo_uVolts, %function
 880              	ADC_CountsTo_uVolts:
 881              	.LFB16:
 780:.\Generated_Source\PSoC4/ADC.c **** 
 781:.\Generated_Source\PSoC4/ADC.c **** 
 782:.\Generated_Source\PSoC4/ADC.c ****     /*******************************************************************************
 783:.\Generated_Source\PSoC4/ADC.c ****     * Function Name: ADC_CountsTo_uVolts
 784:.\Generated_Source\PSoC4/ADC.c ****     ********************************************************************************
 785:.\Generated_Source\PSoC4/ADC.c ****     *
 786:.\Generated_Source\PSoC4/ADC.c ****     * Summary:
 787:.\Generated_Source\PSoC4/ADC.c ****     *  This function converts ADC counts to micro Volts
 788:.\Generated_Source\PSoC4/ADC.c ****     *  This function is not available when left data format justification selected.
 789:.\Generated_Source\PSoC4/ADC.c ****     *
 790:.\Generated_Source\PSoC4/ADC.c ****     * Parameters:
 791:.\Generated_Source\PSoC4/ADC.c ****     *  chan: The ADC channel number.
 792:.\Generated_Source\PSoC4/ADC.c ****     *  adcCounts: Result from the ADC conversion
 793:.\Generated_Source\PSoC4/ADC.c ****     *
 794:.\Generated_Source\PSoC4/ADC.c ****     * Return:
 795:.\Generated_Source\PSoC4/ADC.c ****     *  Results in uVolts
 796:.\Generated_Source\PSoC4/ADC.c ****     *
 797:.\Generated_Source\PSoC4/ADC.c ****     * Global variables:
 798:.\Generated_Source\PSoC4/ADC.c ****     *  ADC_countsPer10Volt:  used to convert ADC counts to uVolts.
 799:.\Generated_Source\PSoC4/ADC.c ****     *  ADC_Offset:  Used as the offset while converting ADC counts
 800:.\Generated_Source\PSoC4/ADC.c ****     *   to mVolts.
 801:.\Generated_Source\PSoC4/ADC.c ****     *
 802:.\Generated_Source\PSoC4/ADC.c ****     * Theory:
 803:.\Generated_Source\PSoC4/ADC.c ****     *  Care must be taken to not exceed the maximum value for a 31 bit signed
 804:.\Generated_Source\PSoC4/ADC.c ****     *  number in the conversion to uVolts and at the same time not loose
 805:.\Generated_Source\PSoC4/ADC.c ****     *  resolution.
 806:.\Generated_Source\PSoC4/ADC.c ****     *  To convert adcCounts to microVolts it is required to be multiplied
 807:.\Generated_Source\PSoC4/ADC.c ****     *  on 10 million and later divide on gain in counts per 10V.
 808:.\Generated_Source\PSoC4/ADC.c ****     *
 809:.\Generated_Source\PSoC4/ADC.c ****     *******************************************************************************/
 810:.\Generated_Source\PSoC4/ADC.c ****     int32 ADC_CountsTo_uVolts(uint32 chan, int16 adcCounts)
 811:.\Generated_Source\PSoC4/ADC.c ****     {
 882              		.loc 1 811 0
 883              		.cfi_startproc
 884              	.LVL67:
 885 0000 38B5     		push	{r3, r4, r5, lr}
 886              		.cfi_def_cfa_offset 16
ARM GAS  C:\Users\Svilen\AppData\Local\Temp\ccj4G4Lh.s 			page 31


 887              		.cfi_offset 3, -16
 888              		.cfi_offset 4, -12
 889              		.cfi_offset 5, -8
 890              		.cfi_offset 14, -4
 891 0002 051C     		mov	r5, r0
 892 0004 0C1C     		mov	r4, r1
 812:.\Generated_Source\PSoC4/ADC.c ****         int64 uVolts;
 813:.\Generated_Source\PSoC4/ADC.c **** 
 814:.\Generated_Source\PSoC4/ADC.c ****         /* Halt CPU in debug mode if channel is out of valid range */
 815:.\Generated_Source\PSoC4/ADC.c ****         CYASSERT(chan < ADC_TOTAL_CHANNELS_NUM);
 893              		.loc 1 815 0
 894 0006 0128     		cmp	r0, #1
 895 0008 02D9     		bls	.L74
 896              		.loc 1 815 0 is_stmt 0 discriminator 1
 897 000a 0020     		mov	r0, #0
 898              	.LVL68:
 899 000c FFF7FEFF 		bl	CyHalt
 900              	.LVL69:
 901              	.L74:
 816:.\Generated_Source\PSoC4/ADC.c **** 
 817:.\Generated_Source\PSoC4/ADC.c ****         /* Divide the adcCount when accumulate averaging mode selected */
 818:.\Generated_Source\PSoC4/ADC.c ****         #if(ADC_DEFAULT_AVG_MODE == ADC__ACCUMULATE)
 819:.\Generated_Source\PSoC4/ADC.c ****             if((ADC_channelsConfig[chan] & ADC_AVERAGING_EN) != 0u)
 820:.\Generated_Source\PSoC4/ADC.c ****             {
 821:.\Generated_Source\PSoC4/ADC.c ****                 adcCounts /= ADC_DEFAULT_AVG_SAMPLES_DIV;
 822:.\Generated_Source\PSoC4/ADC.c ****             }
 823:.\Generated_Source\PSoC4/ADC.c ****         #endif /* ADC_DEFAULT_AVG_MODE == ADC__ACCUMULATE */
 824:.\Generated_Source\PSoC4/ADC.c **** 
 825:.\Generated_Source\PSoC4/ADC.c ****         /* Subtract ADC offset */
 826:.\Generated_Source\PSoC4/ADC.c ****         adcCounts -= ADC_offset[chan];
 902              		.loc 1 826 0 is_stmt 1
 903 0010 6A00     		lsl	r2, r5, #1
 904 0012 084B     		ldr	r3, .L75
 905 0014 D05A     		ldrh	r0, [r2, r3]
 906 0016 201A     		sub	r0, r4, r0
 907 0018 00B2     		sxth	r0, r0
 908              	.LVL70:
 827:.\Generated_Source\PSoC4/ADC.c **** 
 828:.\Generated_Source\PSoC4/ADC.c ****         uVolts = ((int64)adcCounts * ADC_10UV_COUNTS) / ADC_countsPer10Volt[chan];
 909              		.loc 1 828 0
 910 001a C117     		asr	r1, r0, #31
 911 001c 064A     		ldr	r2, .L75+4
 912 001e 0023     		mov	r3, #0
 913 0020 FFF7FEFF 		bl	__aeabi_lmul
 914              	.LVL71:
 915 0024 AD00     		lsl	r5, r5, #2
 916              	.LVL72:
 917 0026 054B     		ldr	r3, .L75+8
 918 0028 EA58     		ldr	r2, [r5, r3]
 919 002a D317     		asr	r3, r2, #31
 920 002c FFF7FEFF 		bl	__aeabi_ldivmod
 921              	.LVL73:
 829:.\Generated_Source\PSoC4/ADC.c **** 
 830:.\Generated_Source\PSoC4/ADC.c ****         return( (int32)uVolts );
 831:.\Generated_Source\PSoC4/ADC.c ****     }
 922              		.loc 1 831 0
 923              		@ sp needed
ARM GAS  C:\Users\Svilen\AppData\Local\Temp\ccj4G4Lh.s 			page 32


 924 0030 38BD     		pop	{r3, r4, r5, pc}
 925              	.L76:
 926 0032 C046     		.align	2
 927              	.L75:
 928 0034 00000000 		.word	ADC_offset
 929 0038 80969800 		.word	10000000
 930 003c 00000000 		.word	ADC_countsPer10Volt
 931              		.cfi_endproc
 932              	.LFE16:
 933              		.size	ADC_CountsTo_uVolts, .-ADC_CountsTo_uVolts
 934              		.global	__aeabi_i2f
 935              		.global	__aeabi_fmul
 936              		.global	__aeabi_fdiv
 937              		.section	.text.ADC_CountsTo_Volts,"ax",%progbits
 938              		.align	2
 939              		.global	ADC_CountsTo_Volts
 940              		.code	16
 941              		.thumb_func
 942              		.type	ADC_CountsTo_Volts, %function
 943              	ADC_CountsTo_Volts:
 944              	.LFB17:
 832:.\Generated_Source\PSoC4/ADC.c **** 
 833:.\Generated_Source\PSoC4/ADC.c **** 
 834:.\Generated_Source\PSoC4/ADC.c ****     /*******************************************************************************
 835:.\Generated_Source\PSoC4/ADC.c ****     * Function Name: ADC_CountsTo_Volts
 836:.\Generated_Source\PSoC4/ADC.c ****     ********************************************************************************
 837:.\Generated_Source\PSoC4/ADC.c ****     *
 838:.\Generated_Source\PSoC4/ADC.c ****     * Summary:
 839:.\Generated_Source\PSoC4/ADC.c ****     *  Converts the ADC output to Volts as a floating point number.
 840:.\Generated_Source\PSoC4/ADC.c ****     *  This function is not available when left data format justification selected.
 841:.\Generated_Source\PSoC4/ADC.c ****     *
 842:.\Generated_Source\PSoC4/ADC.c ****     * Parameters:
 843:.\Generated_Source\PSoC4/ADC.c ****     *  chan: The ADC channel number.
 844:.\Generated_Source\PSoC4/ADC.c ****     *  Result from the ADC conversion
 845:.\Generated_Source\PSoC4/ADC.c ****     *
 846:.\Generated_Source\PSoC4/ADC.c ****     * Return:
 847:.\Generated_Source\PSoC4/ADC.c ****     *  Results in Volts
 848:.\Generated_Source\PSoC4/ADC.c ****     *
 849:.\Generated_Source\PSoC4/ADC.c ****     * Global variables:
 850:.\Generated_Source\PSoC4/ADC.c ****     *  ADC_countsPer10Volt:  used to convert ADC counts to Volts.
 851:.\Generated_Source\PSoC4/ADC.c ****     *  ADC_Offset:  Used as the offset while converting ADC counts
 852:.\Generated_Source\PSoC4/ADC.c ****     *   to mVolts.
 853:.\Generated_Source\PSoC4/ADC.c ****     *
 854:.\Generated_Source\PSoC4/ADC.c ****     *******************************************************************************/
 855:.\Generated_Source\PSoC4/ADC.c ****     float32 ADC_CountsTo_Volts(uint32 chan, int16 adcCounts)
 856:.\Generated_Source\PSoC4/ADC.c ****     {
 945              		.loc 1 856 0
 946              		.cfi_startproc
 947              	.LVL74:
 948 0000 38B5     		push	{r3, r4, r5, lr}
 949              		.cfi_def_cfa_offset 16
 950              		.cfi_offset 3, -16
 951              		.cfi_offset 4, -12
 952              		.cfi_offset 5, -8
 953              		.cfi_offset 14, -4
 954 0002 041C     		mov	r4, r0
 955 0004 0D1C     		mov	r5, r1
ARM GAS  C:\Users\Svilen\AppData\Local\Temp\ccj4G4Lh.s 			page 33


 857:.\Generated_Source\PSoC4/ADC.c ****         float32 volts;
 858:.\Generated_Source\PSoC4/ADC.c **** 
 859:.\Generated_Source\PSoC4/ADC.c ****         /* Halt CPU in debug mode if channel is out of valid range */
 860:.\Generated_Source\PSoC4/ADC.c ****         CYASSERT(chan < ADC_TOTAL_CHANNELS_NUM);
 956              		.loc 1 860 0
 957 0006 0128     		cmp	r0, #1
 958 0008 02D9     		bls	.L78
 959              		.loc 1 860 0 is_stmt 0 discriminator 1
 960 000a 0020     		mov	r0, #0
 961              	.LVL75:
 962 000c FFF7FEFF 		bl	CyHalt
 963              	.LVL76:
 964              	.L78:
 861:.\Generated_Source\PSoC4/ADC.c **** 
 862:.\Generated_Source\PSoC4/ADC.c ****         /* Divide the adcCount when accumulate averaging mode selected */
 863:.\Generated_Source\PSoC4/ADC.c ****         #if(ADC_DEFAULT_AVG_MODE == ADC__ACCUMULATE)
 864:.\Generated_Source\PSoC4/ADC.c ****             if((ADC_channelsConfig[chan] & ADC_AVERAGING_EN) != 0u)
 865:.\Generated_Source\PSoC4/ADC.c ****             {
 866:.\Generated_Source\PSoC4/ADC.c ****                 adcCounts /= ADC_DEFAULT_AVG_SAMPLES_DIV;
 867:.\Generated_Source\PSoC4/ADC.c ****             }
 868:.\Generated_Source\PSoC4/ADC.c ****         #endif /* ADC_DEFAULT_AVG_MODE == ADC__ACCUMULATE */
 869:.\Generated_Source\PSoC4/ADC.c **** 
 870:.\Generated_Source\PSoC4/ADC.c ****         /* Subtract ADC offset */
 871:.\Generated_Source\PSoC4/ADC.c ****         adcCounts -= ADC_offset[chan];
 965              		.loc 1 871 0 is_stmt 1
 966 0010 6200     		lsl	r2, r4, #1
 967 0012 0A4B     		ldr	r3, .L79
 968 0014 D05A     		ldrh	r0, [r2, r3]
 969 0016 281A     		sub	r0, r5, r0
 970 0018 00B2     		sxth	r0, r0
 971              	.LVL77:
 872:.\Generated_Source\PSoC4/ADC.c **** 
 873:.\Generated_Source\PSoC4/ADC.c ****         volts = ((float32)adcCounts * ADC_10V_COUNTS) / (float32)ADC_countsPer10Volt[chan];
 972              		.loc 1 873 0
 973 001a FFF7FEFF 		bl	__aeabi_i2f
 974              	.LVL78:
 975 001e 0849     		ldr	r1, .L79+4
 976 0020 FFF7FEFF 		bl	__aeabi_fmul
 977              	.LVL79:
 978 0024 051C     		add	r5, r0, #0
 979 0026 A400     		lsl	r4, r4, #2
 980              	.LVL80:
 981 0028 064B     		ldr	r3, .L79+8
 982 002a E058     		ldr	r0, [r4, r3]
 983 002c FFF7FEFF 		bl	__aeabi_i2f
 984              	.LVL81:
 985 0030 011C     		add	r1, r0, #0
 986 0032 281C     		add	r0, r5, #0
 987 0034 FFF7FEFF 		bl	__aeabi_fdiv
 988              	.LVL82:
 874:.\Generated_Source\PSoC4/ADC.c **** 
 875:.\Generated_Source\PSoC4/ADC.c ****         return( volts );
 876:.\Generated_Source\PSoC4/ADC.c ****     }
 989              		.loc 1 876 0
 990              		@ sp needed
 991 0038 38BD     		pop	{r3, r4, r5, pc}
 992              	.L80:
ARM GAS  C:\Users\Svilen\AppData\Local\Temp\ccj4G4Lh.s 			page 34


 993 003a C046     		.align	2
 994              	.L79:
 995 003c 00000000 		.word	ADC_offset
 996 0040 00002041 		.word	1092616192
 997 0044 00000000 		.word	ADC_countsPer10Volt
 998              		.cfi_endproc
 999              	.LFE17:
 1000              		.size	ADC_CountsTo_Volts, .-ADC_CountsTo_Volts
 1001              		.comm	ADC_countsPer10Volt,8,4
 1002              		.comm	ADC_offset,4,4
 1003              		.global	ADC_initVar
 1004              		.section	.rodata
 1005              		.align	2
 1006              		.set	.LANCHOR0,. + 0
 1007              		.type	ADC_channelsConfig, %object
 1008              		.size	ADC_channelsConfig, 8
 1009              	ADC_channelsConfig:
 1010 0000 00040000 		.word	1024
 1011 0004 00040000 		.word	1024
 1012              		.type	ADC_InputsPlacement.4749, %object
 1013              		.size	ADC_InputsPlacement.4749, 2
 1014              	ADC_InputsPlacement.4749:
 1015 0008 72       		.byte	114
 1016 0009 73       		.byte	115
 1017 000a 0000     		.bss
 1018              		.set	.LANCHOR1,. + 0
 1019              		.type	ADC_initVar, %object
 1020              		.size	ADC_initVar, 1
 1021              	ADC_initVar:
 1022 0000 00       		.space	1
 1023              		.text
 1024              	.Letext0:
 1025              		.file 2 ".\\Generated_Source\\PSoC4\\cytypes.h"
 1026              		.file 3 ".\\Generated_Source\\PSoC4\\CyLib.h"