ARM GAS  C:\Users\Svilen\AppData\Local\Temp\cc7nz1ja.s 			page 1


   1              		.cpu cortex-m0
   2              		.fpu softvfp
   3              		.eabi_attribute 20, 1
   4              		.eabi_attribute 21, 1
   5              		.eabi_attribute 23, 3
   6              		.eabi_attribute 24, 1
   7              		.eabi_attribute 25, 1
   8              		.eabi_attribute 26, 1
   9              		.eabi_attribute 30, 1
  10              		.eabi_attribute 34, 0
  11              		.eabi_attribute 18, 4
  12              		.code	16
  13              		.file	"AMux.c"
  14              		.text
  15              	.Ltext0:
  16              		.cfi_sections	.debug_frame
  17              		.section	.text.AMux_Start,"ax",%progbits
  18              		.align	2
  19              		.global	AMux_Start
  20              		.code	16
  21              		.thumb_func
  22              		.type	AMux_Start, %function
  23              	AMux_Start:
  24              	.LFB0:
  25              		.file 1 ".\\Generated_Source\\PSoC4\\AMux.c"
   1:.\Generated_Source\PSoC4/AMux.c **** /*******************************************************************************
   2:.\Generated_Source\PSoC4/AMux.c **** * File Name: AMux.c
   3:.\Generated_Source\PSoC4/AMux.c **** * Version 1.80
   4:.\Generated_Source\PSoC4/AMux.c **** *
   5:.\Generated_Source\PSoC4/AMux.c **** *  Description:
   6:.\Generated_Source\PSoC4/AMux.c **** *    This file contains all functions required for the analog multiplexer
   7:.\Generated_Source\PSoC4/AMux.c **** *    AMux User Module.
   8:.\Generated_Source\PSoC4/AMux.c **** *
   9:.\Generated_Source\PSoC4/AMux.c **** *   Note:
  10:.\Generated_Source\PSoC4/AMux.c **** *
  11:.\Generated_Source\PSoC4/AMux.c **** *******************************************************************************
  12:.\Generated_Source\PSoC4/AMux.c **** * Copyright 2008-2010, Cypress Semiconductor Corporation.  All rights reserved.
  13:.\Generated_Source\PSoC4/AMux.c **** * You may use this file only in accordance with the license, terms, conditions, 
  14:.\Generated_Source\PSoC4/AMux.c **** * disclaimers, and limitations in the end user license agreement accompanying 
  15:.\Generated_Source\PSoC4/AMux.c **** * the software package with which this file was provided.
  16:.\Generated_Source\PSoC4/AMux.c **** ********************************************************************************/
  17:.\Generated_Source\PSoC4/AMux.c **** 
  18:.\Generated_Source\PSoC4/AMux.c **** #include "AMux.h"
  19:.\Generated_Source\PSoC4/AMux.c **** 
  20:.\Generated_Source\PSoC4/AMux.c **** static uint8 AMux_lastChannel = AMux_NULL_CHANNEL;
  21:.\Generated_Source\PSoC4/AMux.c **** 
  22:.\Generated_Source\PSoC4/AMux.c **** 
  23:.\Generated_Source\PSoC4/AMux.c **** /*******************************************************************************
  24:.\Generated_Source\PSoC4/AMux.c **** * Function Name: AMux_Start
  25:.\Generated_Source\PSoC4/AMux.c **** ********************************************************************************
  26:.\Generated_Source\PSoC4/AMux.c **** * Summary:
  27:.\Generated_Source\PSoC4/AMux.c **** *  Disconnect all channels.
  28:.\Generated_Source\PSoC4/AMux.c **** *
  29:.\Generated_Source\PSoC4/AMux.c **** * Parameters:
  30:.\Generated_Source\PSoC4/AMux.c **** *  void
  31:.\Generated_Source\PSoC4/AMux.c **** *
  32:.\Generated_Source\PSoC4/AMux.c **** * Return:
ARM GAS  C:\Users\Svilen\AppData\Local\Temp\cc7nz1ja.s 			page 2


  33:.\Generated_Source\PSoC4/AMux.c **** *  void
  34:.\Generated_Source\PSoC4/AMux.c **** *
  35:.\Generated_Source\PSoC4/AMux.c **** *******************************************************************************/
  36:.\Generated_Source\PSoC4/AMux.c **** void AMux_Start(void) 
  37:.\Generated_Source\PSoC4/AMux.c **** {
  26              		.loc 1 37 0
  27              		.cfi_startproc
  28 0000 10B5     		push	{r4, lr}
  29              		.cfi_def_cfa_offset 8
  30              		.cfi_offset 4, -8
  31              		.cfi_offset 14, -4
  32              	.LVL0:
  38:.\Generated_Source\PSoC4/AMux.c ****     uint8 chan;
  39:.\Generated_Source\PSoC4/AMux.c **** 
  40:.\Generated_Source\PSoC4/AMux.c ****     for(chan = 0u; chan < AMux_CHANNELS ; chan++)
  33              		.loc 1 40 0
  34 0002 0024     		mov	r4, #0
  35 0004 04E0     		b	.L2
  36              	.LVL1:
  37              	.L3:
  41:.\Generated_Source\PSoC4/AMux.c ****     {
  42:.\Generated_Source\PSoC4/AMux.c **** #if (AMux_MUXTYPE == AMux_MUX_SINGLE)
  43:.\Generated_Source\PSoC4/AMux.c ****         AMux_Unset(chan);
  38              		.loc 1 43 0 discriminator 3
  39 0006 201C     		mov	r0, r4
  40 0008 FFF7FEFF 		bl	AMux_Unset
  41              	.LVL2:
  40:.\Generated_Source\PSoC4/AMux.c ****     {
  42              		.loc 1 40 0 discriminator 3
  43 000c 0134     		add	r4, r4, #1
  44              	.LVL3:
  45 000e E4B2     		uxtb	r4, r4
  46              	.LVL4:
  47              	.L2:
  40:.\Generated_Source\PSoC4/AMux.c ****     {
  48              		.loc 1 40 0 is_stmt 0 discriminator 1
  49 0010 022C     		cmp	r4, #2
  50 0012 F8D9     		bls	.L3
  44:.\Generated_Source\PSoC4/AMux.c **** #else
  45:.\Generated_Source\PSoC4/AMux.c ****         AMux_CYAMUXSIDE_A_Unset(chan);
  46:.\Generated_Source\PSoC4/AMux.c ****         AMux_CYAMUXSIDE_B_Unset(chan);
  47:.\Generated_Source\PSoC4/AMux.c **** #endif
  48:.\Generated_Source\PSoC4/AMux.c ****     }
  49:.\Generated_Source\PSoC4/AMux.c **** 
  50:.\Generated_Source\PSoC4/AMux.c ****     AMux_lastChannel = AMux_NULL_CHANNEL;
  51              		.loc 1 50 0 is_stmt 1
  52 0014 FF22     		mov	r2, #255
  53 0016 014B     		ldr	r3, .L4
  54 0018 1A70     		strb	r2, [r3]
  51:.\Generated_Source\PSoC4/AMux.c **** }
  55              		.loc 1 51 0
  56              		@ sp needed
  57              	.LVL5:
  58 001a 10BD     		pop	{r4, pc}
  59              	.L5:
  60              		.align	2
  61              	.L4:
ARM GAS  C:\Users\Svilen\AppData\Local\Temp\cc7nz1ja.s 			page 3


  62 001c 00000000 		.word	.LANCHOR0
  63              		.cfi_endproc
  64              	.LFE0:
  65              		.size	AMux_Start, .-AMux_Start
  66              		.section	.text.AMux_FastSelect,"ax",%progbits
  67              		.align	2
  68              		.global	AMux_FastSelect
  69              		.code	16
  70              		.thumb_func
  71              		.type	AMux_FastSelect, %function
  72              	AMux_FastSelect:
  73              	.LFB1:
  52:.\Generated_Source\PSoC4/AMux.c **** 
  53:.\Generated_Source\PSoC4/AMux.c **** 
  54:.\Generated_Source\PSoC4/AMux.c **** #if (!AMux_ATMOSTONE)
  55:.\Generated_Source\PSoC4/AMux.c **** /*******************************************************************************
  56:.\Generated_Source\PSoC4/AMux.c **** * Function Name: AMux_Select
  57:.\Generated_Source\PSoC4/AMux.c **** ********************************************************************************
  58:.\Generated_Source\PSoC4/AMux.c **** * Summary:
  59:.\Generated_Source\PSoC4/AMux.c **** *  This functions first disconnects all channels then connects the given
  60:.\Generated_Source\PSoC4/AMux.c **** *  channel.
  61:.\Generated_Source\PSoC4/AMux.c **** *
  62:.\Generated_Source\PSoC4/AMux.c **** * Parameters:
  63:.\Generated_Source\PSoC4/AMux.c **** *  channel:  The channel to connect to the common terminal.
  64:.\Generated_Source\PSoC4/AMux.c **** *
  65:.\Generated_Source\PSoC4/AMux.c **** * Return:
  66:.\Generated_Source\PSoC4/AMux.c **** *  void
  67:.\Generated_Source\PSoC4/AMux.c **** *
  68:.\Generated_Source\PSoC4/AMux.c **** *******************************************************************************/
  69:.\Generated_Source\PSoC4/AMux.c **** void AMux_Select(uint8 channel) 
  70:.\Generated_Source\PSoC4/AMux.c **** {
  71:.\Generated_Source\PSoC4/AMux.c ****     AMux_DisconnectAll();        /* Disconnect all previous connections */
  72:.\Generated_Source\PSoC4/AMux.c ****     AMux_Connect(channel);       /* Make the given selection */
  73:.\Generated_Source\PSoC4/AMux.c ****     AMux_lastChannel = channel;  /* Update last channel */
  74:.\Generated_Source\PSoC4/AMux.c **** }
  75:.\Generated_Source\PSoC4/AMux.c **** #endif
  76:.\Generated_Source\PSoC4/AMux.c **** 
  77:.\Generated_Source\PSoC4/AMux.c **** 
  78:.\Generated_Source\PSoC4/AMux.c **** /*******************************************************************************
  79:.\Generated_Source\PSoC4/AMux.c **** * Function Name: AMux_FastSelect
  80:.\Generated_Source\PSoC4/AMux.c **** ********************************************************************************
  81:.\Generated_Source\PSoC4/AMux.c **** * Summary:
  82:.\Generated_Source\PSoC4/AMux.c **** *  This function first disconnects the last connection made with FastSelect or
  83:.\Generated_Source\PSoC4/AMux.c **** *  Select, then connects the given channel. The FastSelect function is similar
  84:.\Generated_Source\PSoC4/AMux.c **** *  to the Select function, except it is faster since it only disconnects the
  85:.\Generated_Source\PSoC4/AMux.c **** *  last channel selected rather than all channels.
  86:.\Generated_Source\PSoC4/AMux.c **** *
  87:.\Generated_Source\PSoC4/AMux.c **** * Parameters:
  88:.\Generated_Source\PSoC4/AMux.c **** *  channel:  The channel to connect to the common terminal.
  89:.\Generated_Source\PSoC4/AMux.c **** *
  90:.\Generated_Source\PSoC4/AMux.c **** * Return:
  91:.\Generated_Source\PSoC4/AMux.c **** *  void
  92:.\Generated_Source\PSoC4/AMux.c **** *
  93:.\Generated_Source\PSoC4/AMux.c **** *******************************************************************************/
  94:.\Generated_Source\PSoC4/AMux.c **** void AMux_FastSelect(uint8 channel) 
  95:.\Generated_Source\PSoC4/AMux.c **** {
  74              		.loc 1 95 0
ARM GAS  C:\Users\Svilen\AppData\Local\Temp\cc7nz1ja.s 			page 4


  75              		.cfi_startproc
  76              	.LVL6:
  77 0000 10B5     		push	{r4, lr}
  78              		.cfi_def_cfa_offset 8
  79              		.cfi_offset 4, -8
  80              		.cfi_offset 14, -4
  81 0002 041C     		mov	r4, r0
  96:.\Generated_Source\PSoC4/AMux.c ****     /* Disconnect the last valid channel */
  97:.\Generated_Source\PSoC4/AMux.c ****     if( AMux_lastChannel != AMux_NULL_CHANNEL)
  82              		.loc 1 97 0
  83 0004 054B     		ldr	r3, .L8
  84 0006 1878     		ldrb	r0, [r3]
  85              	.LVL7:
  86 0008 FF28     		cmp	r0, #255
  87 000a 01D0     		beq	.L7
  98:.\Generated_Source\PSoC4/AMux.c ****     {
  99:.\Generated_Source\PSoC4/AMux.c ****         AMux_Disconnect(AMux_lastChannel);
  88              		.loc 1 99 0
  89 000c FFF7FEFF 		bl	AMux_Unset
  90              	.LVL8:
  91              	.L7:
 100:.\Generated_Source\PSoC4/AMux.c ****     }
 101:.\Generated_Source\PSoC4/AMux.c **** 
 102:.\Generated_Source\PSoC4/AMux.c ****     /* Make the new channel connection */
 103:.\Generated_Source\PSoC4/AMux.c **** #if (AMux_MUXTYPE == AMux_MUX_SINGLE)
 104:.\Generated_Source\PSoC4/AMux.c ****     AMux_Set(channel);
  92              		.loc 1 104 0
  93 0010 201C     		mov	r0, r4
  94 0012 FFF7FEFF 		bl	AMux_Set
  95              	.LVL9:
 105:.\Generated_Source\PSoC4/AMux.c **** #else
 106:.\Generated_Source\PSoC4/AMux.c ****     AMux_CYAMUXSIDE_A_Set(channel);
 107:.\Generated_Source\PSoC4/AMux.c ****     AMux_CYAMUXSIDE_B_Set(channel);
 108:.\Generated_Source\PSoC4/AMux.c **** #endif
 109:.\Generated_Source\PSoC4/AMux.c **** 
 110:.\Generated_Source\PSoC4/AMux.c **** 
 111:.\Generated_Source\PSoC4/AMux.c ****     AMux_lastChannel = channel;   /* Update last channel */
  96              		.loc 1 111 0
  97 0016 014B     		ldr	r3, .L8
  98 0018 1C70     		strb	r4, [r3]
 112:.\Generated_Source\PSoC4/AMux.c **** }
  99              		.loc 1 112 0
 100              		@ sp needed
 101 001a 10BD     		pop	{r4, pc}
 102              	.L9:
 103              		.align	2
 104              	.L8:
 105 001c 00000000 		.word	.LANCHOR0
 106              		.cfi_endproc
 107              	.LFE1:
 108              		.size	AMux_FastSelect, .-AMux_FastSelect
 109              		.section	.text.AMux_DisconnectAll,"ax",%progbits
 110              		.align	2
 111              		.global	AMux_DisconnectAll
 112              		.code	16
 113              		.thumb_func
 114              		.type	AMux_DisconnectAll, %function
ARM GAS  C:\Users\Svilen\AppData\Local\Temp\cc7nz1ja.s 			page 5


 115              	AMux_DisconnectAll:
 116              	.LFB2:
 113:.\Generated_Source\PSoC4/AMux.c **** 
 114:.\Generated_Source\PSoC4/AMux.c **** 
 115:.\Generated_Source\PSoC4/AMux.c **** #if (AMux_MUXTYPE == AMux_MUX_DIFF)
 116:.\Generated_Source\PSoC4/AMux.c **** #if (!AMux_ATMOSTONE)
 117:.\Generated_Source\PSoC4/AMux.c **** /*******************************************************************************
 118:.\Generated_Source\PSoC4/AMux.c **** * Function Name: AMux_Connect
 119:.\Generated_Source\PSoC4/AMux.c **** ********************************************************************************
 120:.\Generated_Source\PSoC4/AMux.c **** * Summary:
 121:.\Generated_Source\PSoC4/AMux.c **** *  This function connects the given channel without affecting other connections.
 122:.\Generated_Source\PSoC4/AMux.c **** *
 123:.\Generated_Source\PSoC4/AMux.c **** * Parameters:
 124:.\Generated_Source\PSoC4/AMux.c **** *  channel:  The channel to connect to the common terminal.
 125:.\Generated_Source\PSoC4/AMux.c **** *
 126:.\Generated_Source\PSoC4/AMux.c **** * Return:
 127:.\Generated_Source\PSoC4/AMux.c **** *  void
 128:.\Generated_Source\PSoC4/AMux.c **** *
 129:.\Generated_Source\PSoC4/AMux.c **** *******************************************************************************/
 130:.\Generated_Source\PSoC4/AMux.c **** void AMux_Connect(uint8 channel) 
 131:.\Generated_Source\PSoC4/AMux.c **** {
 132:.\Generated_Source\PSoC4/AMux.c ****     AMux_CYAMUXSIDE_A_Set(channel);
 133:.\Generated_Source\PSoC4/AMux.c ****     AMux_CYAMUXSIDE_B_Set(channel);
 134:.\Generated_Source\PSoC4/AMux.c **** }
 135:.\Generated_Source\PSoC4/AMux.c **** #endif
 136:.\Generated_Source\PSoC4/AMux.c **** 
 137:.\Generated_Source\PSoC4/AMux.c **** /*******************************************************************************
 138:.\Generated_Source\PSoC4/AMux.c **** * Function Name: AMux_Disconnect
 139:.\Generated_Source\PSoC4/AMux.c **** ********************************************************************************
 140:.\Generated_Source\PSoC4/AMux.c **** * Summary:
 141:.\Generated_Source\PSoC4/AMux.c **** *  This function disconnects the given channel from the common or output
 142:.\Generated_Source\PSoC4/AMux.c **** *  terminal without affecting other connections.
 143:.\Generated_Source\PSoC4/AMux.c **** *
 144:.\Generated_Source\PSoC4/AMux.c **** * Parameters:
 145:.\Generated_Source\PSoC4/AMux.c **** *  channel:  The channel to disconnect from the common terminal.
 146:.\Generated_Source\PSoC4/AMux.c **** *
 147:.\Generated_Source\PSoC4/AMux.c **** * Return:
 148:.\Generated_Source\PSoC4/AMux.c **** *  void
 149:.\Generated_Source\PSoC4/AMux.c **** *
 150:.\Generated_Source\PSoC4/AMux.c **** *******************************************************************************/
 151:.\Generated_Source\PSoC4/AMux.c **** void AMux_Disconnect(uint8 channel) 
 152:.\Generated_Source\PSoC4/AMux.c **** {
 153:.\Generated_Source\PSoC4/AMux.c ****     AMux_CYAMUXSIDE_A_Unset(channel);
 154:.\Generated_Source\PSoC4/AMux.c ****     AMux_CYAMUXSIDE_B_Unset(channel);
 155:.\Generated_Source\PSoC4/AMux.c **** }
 156:.\Generated_Source\PSoC4/AMux.c **** #endif
 157:.\Generated_Source\PSoC4/AMux.c **** 
 158:.\Generated_Source\PSoC4/AMux.c **** #if (AMux_ATMOSTONE)
 159:.\Generated_Source\PSoC4/AMux.c **** /*******************************************************************************
 160:.\Generated_Source\PSoC4/AMux.c **** * Function Name: AMux_DisconnectAll
 161:.\Generated_Source\PSoC4/AMux.c **** ********************************************************************************
 162:.\Generated_Source\PSoC4/AMux.c **** * Summary:
 163:.\Generated_Source\PSoC4/AMux.c **** *  This function disconnects all channels.
 164:.\Generated_Source\PSoC4/AMux.c **** *
 165:.\Generated_Source\PSoC4/AMux.c **** * Parameters:
 166:.\Generated_Source\PSoC4/AMux.c **** *  void
 167:.\Generated_Source\PSoC4/AMux.c **** *
ARM GAS  C:\Users\Svilen\AppData\Local\Temp\cc7nz1ja.s 			page 6


 168:.\Generated_Source\PSoC4/AMux.c **** * Return:
 169:.\Generated_Source\PSoC4/AMux.c **** *  void
 170:.\Generated_Source\PSoC4/AMux.c **** *
 171:.\Generated_Source\PSoC4/AMux.c **** *******************************************************************************/
 172:.\Generated_Source\PSoC4/AMux.c **** void AMux_DisconnectAll(void) 
 173:.\Generated_Source\PSoC4/AMux.c **** {
 117              		.loc 1 173 0
 118              		.cfi_startproc
 119 0000 08B5     		push	{r3, lr}
 120              		.cfi_def_cfa_offset 8
 121              		.cfi_offset 3, -8
 122              		.cfi_offset 14, -4
 174:.\Generated_Source\PSoC4/AMux.c ****     if(AMux_lastChannel != AMux_NULL_CHANNEL) 
 123              		.loc 1 174 0
 124 0002 054B     		ldr	r3, .L12
 125 0004 1878     		ldrb	r0, [r3]
 126 0006 FF28     		cmp	r0, #255
 127 0008 04D0     		beq	.L10
 175:.\Generated_Source\PSoC4/AMux.c ****     {
 176:.\Generated_Source\PSoC4/AMux.c ****         AMux_Disconnect(AMux_lastChannel);
 128              		.loc 1 176 0
 129 000a FFF7FEFF 		bl	AMux_Unset
 130              	.LVL10:
 177:.\Generated_Source\PSoC4/AMux.c ****         AMux_lastChannel = AMux_NULL_CHANNEL;
 131              		.loc 1 177 0
 132 000e FF22     		mov	r2, #255
 133 0010 014B     		ldr	r3, .L12
 134 0012 1A70     		strb	r2, [r3]
 135              	.L10:
 178:.\Generated_Source\PSoC4/AMux.c ****     }
 179:.\Generated_Source\PSoC4/AMux.c **** }
 136              		.loc 1 179 0
 137              		@ sp needed
 138 0014 08BD     		pop	{r3, pc}
 139              	.L13:
 140 0016 C046     		.align	2
 141              	.L12:
 142 0018 00000000 		.word	.LANCHOR0
 143              		.cfi_endproc
 144              	.LFE2:
 145              		.size	AMux_DisconnectAll, .-AMux_DisconnectAll
 146              		.data
 147              		.set	.LANCHOR0,. + 0
 148              		.type	AMux_lastChannel, %object
 149              		.size	AMux_lastChannel, 1
 150              	AMux_lastChannel:
 151 0000 FF       		.byte	-1
 152              		.text
 153              	.Letext0:
 154              		.file 2 ".\\Generated_Source\\PSoC4\\cytypes.h"
 155              		.file 3 ".\\Generated_Source\\PSoC4\\cyfitter_cfg.h"