ARM GAS  C:\Users\Svilen\AppData\Local\Temp\ccowxtJU.s 			page 1


   1              		.cpu cortex-m0
   2              		.fpu softvfp
   3              		.eabi_attribute 20, 1
   4              		.eabi_attribute 21, 1
   5              		.eabi_attribute 23, 3
   6              		.eabi_attribute 24, 1
   7              		.eabi_attribute 25, 1
   8              		.eabi_attribute 26, 1
   9              		.eabi_attribute 30, 1
  10              		.eabi_attribute 34, 0
  11              		.eabi_attribute 18, 4
  12              		.code	16
  13              		.file	"cyfitter_cfg.c"
  14              		.text
  15              	.Ltext0:
  16              		.cfi_sections	.debug_frame
  17              		.section	.text.cfg_write_bytes32,"ax",%progbits
  18              		.align	2
  19              		.code	16
  20              		.thumb_func
  21              		.type	cfg_write_bytes32, %function
  22              	cfg_write_bytes32:
  23              	.LFB3:
  24              		.file 1 ".\\Generated_Source\\PSoC4\\cyfitter_cfg.c"
   1:.\Generated_Source\PSoC4/cyfitter_cfg.c **** /*******************************************************************************
   2:.\Generated_Source\PSoC4/cyfitter_cfg.c **** * File Name: cyfitter_cfg.c
   3:.\Generated_Source\PSoC4/cyfitter_cfg.c **** * 
   4:.\Generated_Source\PSoC4/cyfitter_cfg.c **** * PSoC Creator  3.3 CP3
   5:.\Generated_Source\PSoC4/cyfitter_cfg.c **** *
   6:.\Generated_Source\PSoC4/cyfitter_cfg.c **** * Description:
   7:.\Generated_Source\PSoC4/cyfitter_cfg.c **** * This file contains device initialization code.
   8:.\Generated_Source\PSoC4/cyfitter_cfg.c **** * Except for the user defined sections in CyClockStartupError(), this file should not be modified.
   9:.\Generated_Source\PSoC4/cyfitter_cfg.c **** * This file is automatically generated by PSoC Creator.
  10:.\Generated_Source\PSoC4/cyfitter_cfg.c **** *
  11:.\Generated_Source\PSoC4/cyfitter_cfg.c **** ********************************************************************************
  12:.\Generated_Source\PSoC4/cyfitter_cfg.c **** * Copyright (c) 2007-2016 Cypress Semiconductor.  All rights reserved.
  13:.\Generated_Source\PSoC4/cyfitter_cfg.c **** * You may use this file only in accordance with the license, terms, conditions, 
  14:.\Generated_Source\PSoC4/cyfitter_cfg.c **** * disclaimers, and limitations in the end user license agreement accompanying 
  15:.\Generated_Source\PSoC4/cyfitter_cfg.c **** * the software package with which this file was provided.
  16:.\Generated_Source\PSoC4/cyfitter_cfg.c **** ********************************************************************************/
  17:.\Generated_Source\PSoC4/cyfitter_cfg.c **** 
  18:.\Generated_Source\PSoC4/cyfitter_cfg.c **** #include <string.h>
  19:.\Generated_Source\PSoC4/cyfitter_cfg.c **** #include "cytypes.h"
  20:.\Generated_Source\PSoC4/cyfitter_cfg.c **** #include "cydevice_trm.h"
  21:.\Generated_Source\PSoC4/cyfitter_cfg.c **** #include "cyfitter.h"
  22:.\Generated_Source\PSoC4/cyfitter_cfg.c **** #include "CyLib.h"
  23:.\Generated_Source\PSoC4/cyfitter_cfg.c **** #include "CyLFClk.h"
  24:.\Generated_Source\PSoC4/cyfitter_cfg.c **** #include "cyfitter_cfg.h"
  25:.\Generated_Source\PSoC4/cyfitter_cfg.c **** 
  26:.\Generated_Source\PSoC4/cyfitter_cfg.c **** 
  27:.\Generated_Source\PSoC4/cyfitter_cfg.c **** #if defined(__GNUC__) || defined(__ARMCC_VERSION)
  28:.\Generated_Source\PSoC4/cyfitter_cfg.c ****     #define CYPACKED 
  29:.\Generated_Source\PSoC4/cyfitter_cfg.c ****     #define CYPACKED_ATTR __attribute__ ((packed))
  30:.\Generated_Source\PSoC4/cyfitter_cfg.c ****     #define CYALIGNED __attribute__ ((aligned))
  31:.\Generated_Source\PSoC4/cyfitter_cfg.c ****     #define CY_CFG_UNUSED __attribute__ ((unused))
  32:.\Generated_Source\PSoC4/cyfitter_cfg.c ****     #ifndef CY_CFG_SECTION
  33:.\Generated_Source\PSoC4/cyfitter_cfg.c ****         #define CY_CFG_SECTION __attribute__ ((section(".psocinit")))
ARM GAS  C:\Users\Svilen\AppData\Local\Temp\ccowxtJU.s 			page 2


  34:.\Generated_Source\PSoC4/cyfitter_cfg.c ****     #endif
  35:.\Generated_Source\PSoC4/cyfitter_cfg.c ****     
  36:.\Generated_Source\PSoC4/cyfitter_cfg.c ****     #if defined(__ARMCC_VERSION)
  37:.\Generated_Source\PSoC4/cyfitter_cfg.c ****         #define CY_CFG_MEMORY_BARRIER() __memory_changed()
  38:.\Generated_Source\PSoC4/cyfitter_cfg.c ****     #else
  39:.\Generated_Source\PSoC4/cyfitter_cfg.c ****         #define CY_CFG_MEMORY_BARRIER() __sync_synchronize()
  40:.\Generated_Source\PSoC4/cyfitter_cfg.c ****     #endif
  41:.\Generated_Source\PSoC4/cyfitter_cfg.c ****     
  42:.\Generated_Source\PSoC4/cyfitter_cfg.c **** #elif defined(__ICCARM__)
  43:.\Generated_Source\PSoC4/cyfitter_cfg.c ****     #include <intrinsics.h>
  44:.\Generated_Source\PSoC4/cyfitter_cfg.c **** 
  45:.\Generated_Source\PSoC4/cyfitter_cfg.c ****     #define CYPACKED __packed
  46:.\Generated_Source\PSoC4/cyfitter_cfg.c ****     #define CYPACKED_ATTR 
  47:.\Generated_Source\PSoC4/cyfitter_cfg.c ****     #define CYALIGNED _Pragma("data_alignment=4")
  48:.\Generated_Source\PSoC4/cyfitter_cfg.c ****     #define CY_CFG_UNUSED _Pragma("diag_suppress=Pe177")
  49:.\Generated_Source\PSoC4/cyfitter_cfg.c ****     #define CY_CFG_SECTION _Pragma("location=\".psocinit\"")
  50:.\Generated_Source\PSoC4/cyfitter_cfg.c ****     
  51:.\Generated_Source\PSoC4/cyfitter_cfg.c ****     #define CY_CFG_MEMORY_BARRIER() __DMB()
  52:.\Generated_Source\PSoC4/cyfitter_cfg.c ****     
  53:.\Generated_Source\PSoC4/cyfitter_cfg.c **** #else
  54:.\Generated_Source\PSoC4/cyfitter_cfg.c ****     #error Unsupported toolchain
  55:.\Generated_Source\PSoC4/cyfitter_cfg.c **** #endif
  56:.\Generated_Source\PSoC4/cyfitter_cfg.c **** 
  57:.\Generated_Source\PSoC4/cyfitter_cfg.c **** 
  58:.\Generated_Source\PSoC4/cyfitter_cfg.c **** CY_CFG_UNUSED
  59:.\Generated_Source\PSoC4/cyfitter_cfg.c **** static void CYMEMZERO(void *s, size_t n);
  60:.\Generated_Source\PSoC4/cyfitter_cfg.c **** CY_CFG_UNUSED
  61:.\Generated_Source\PSoC4/cyfitter_cfg.c **** static void CYMEMZERO(void *s, size_t n)
  62:.\Generated_Source\PSoC4/cyfitter_cfg.c **** {
  63:.\Generated_Source\PSoC4/cyfitter_cfg.c **** 	(void)memset(s, 0, n);
  64:.\Generated_Source\PSoC4/cyfitter_cfg.c **** }
  65:.\Generated_Source\PSoC4/cyfitter_cfg.c **** CY_CFG_UNUSED
  66:.\Generated_Source\PSoC4/cyfitter_cfg.c **** static void CYCONFIGCPY(void *dest, const void *src, size_t n);
  67:.\Generated_Source\PSoC4/cyfitter_cfg.c **** CY_CFG_UNUSED
  68:.\Generated_Source\PSoC4/cyfitter_cfg.c **** static void CYCONFIGCPY(void *dest, const void *src, size_t n)
  69:.\Generated_Source\PSoC4/cyfitter_cfg.c **** {
  70:.\Generated_Source\PSoC4/cyfitter_cfg.c **** 	(void)memcpy(dest, src, n);
  71:.\Generated_Source\PSoC4/cyfitter_cfg.c **** }
  72:.\Generated_Source\PSoC4/cyfitter_cfg.c **** CY_CFG_UNUSED
  73:.\Generated_Source\PSoC4/cyfitter_cfg.c **** static void CYCONFIGCPYCODE(void *dest, const void *src, size_t n);
  74:.\Generated_Source\PSoC4/cyfitter_cfg.c **** CY_CFG_UNUSED
  75:.\Generated_Source\PSoC4/cyfitter_cfg.c **** static void CYCONFIGCPYCODE(void *dest, const void *src, size_t n)
  76:.\Generated_Source\PSoC4/cyfitter_cfg.c **** {
  77:.\Generated_Source\PSoC4/cyfitter_cfg.c **** 	(void)memcpy(dest, src, n);
  78:.\Generated_Source\PSoC4/cyfitter_cfg.c **** }
  79:.\Generated_Source\PSoC4/cyfitter_cfg.c **** 
  80:.\Generated_Source\PSoC4/cyfitter_cfg.c **** 
  81:.\Generated_Source\PSoC4/cyfitter_cfg.c **** 
  82:.\Generated_Source\PSoC4/cyfitter_cfg.c **** /* Clock startup error codes                                                   */
  83:.\Generated_Source\PSoC4/cyfitter_cfg.c **** #define CYCLOCKSTART_NO_ERROR    0u
  84:.\Generated_Source\PSoC4/cyfitter_cfg.c **** #define CYCLOCKSTART_XTAL_ERROR  1u
  85:.\Generated_Source\PSoC4/cyfitter_cfg.c **** #define CYCLOCKSTART_32KHZ_ERROR 2u
  86:.\Generated_Source\PSoC4/cyfitter_cfg.c **** #define CYCLOCKSTART_PLL_ERROR   3u
  87:.\Generated_Source\PSoC4/cyfitter_cfg.c **** 
  88:.\Generated_Source\PSoC4/cyfitter_cfg.c **** #ifdef CY_NEED_CYCLOCKSTARTUPERROR
  89:.\Generated_Source\PSoC4/cyfitter_cfg.c **** /*******************************************************************************
  90:.\Generated_Source\PSoC4/cyfitter_cfg.c **** * Function Name: CyClockStartupError
ARM GAS  C:\Users\Svilen\AppData\Local\Temp\ccowxtJU.s 			page 3


  91:.\Generated_Source\PSoC4/cyfitter_cfg.c **** ********************************************************************************
  92:.\Generated_Source\PSoC4/cyfitter_cfg.c **** * Summary:
  93:.\Generated_Source\PSoC4/cyfitter_cfg.c **** *  If an error is encountered during clock configuration (crystal startup error,
  94:.\Generated_Source\PSoC4/cyfitter_cfg.c **** *  PLL lock error, etc.), the system will end up here.  Unless reimplemented by
  95:.\Generated_Source\PSoC4/cyfitter_cfg.c **** *  the customer, this function will stop in an infinite loop.
  96:.\Generated_Source\PSoC4/cyfitter_cfg.c **** *
  97:.\Generated_Source\PSoC4/cyfitter_cfg.c **** * Parameters:
  98:.\Generated_Source\PSoC4/cyfitter_cfg.c **** *   void
  99:.\Generated_Source\PSoC4/cyfitter_cfg.c **** *
 100:.\Generated_Source\PSoC4/cyfitter_cfg.c **** * Return:
 101:.\Generated_Source\PSoC4/cyfitter_cfg.c **** *   void
 102:.\Generated_Source\PSoC4/cyfitter_cfg.c **** *
 103:.\Generated_Source\PSoC4/cyfitter_cfg.c **** *******************************************************************************/
 104:.\Generated_Source\PSoC4/cyfitter_cfg.c **** CY_CFG_UNUSED
 105:.\Generated_Source\PSoC4/cyfitter_cfg.c **** static void CyClockStartupError(uint8 errorCode);
 106:.\Generated_Source\PSoC4/cyfitter_cfg.c **** CY_CFG_UNUSED
 107:.\Generated_Source\PSoC4/cyfitter_cfg.c **** static void CyClockStartupError(uint8 errorCode)
 108:.\Generated_Source\PSoC4/cyfitter_cfg.c **** {
 109:.\Generated_Source\PSoC4/cyfitter_cfg.c ****     /* To remove the compiler warning if errorCode not used.                */
 110:.\Generated_Source\PSoC4/cyfitter_cfg.c ****     errorCode = errorCode;
 111:.\Generated_Source\PSoC4/cyfitter_cfg.c **** 
 112:.\Generated_Source\PSoC4/cyfitter_cfg.c ****     /* `#START CyClockStartupError` */
 113:.\Generated_Source\PSoC4/cyfitter_cfg.c **** 
 114:.\Generated_Source\PSoC4/cyfitter_cfg.c ****     /* If we have a clock startup error (bad MHz crystal, PLL lock, etc.),  */
 115:.\Generated_Source\PSoC4/cyfitter_cfg.c ****     /* we will end up here to allow the customer to implement something to  */
 116:.\Generated_Source\PSoC4/cyfitter_cfg.c ****     /* deal with the clock condition.                                       */
 117:.\Generated_Source\PSoC4/cyfitter_cfg.c **** 
 118:.\Generated_Source\PSoC4/cyfitter_cfg.c ****     /* `#END` */
 119:.\Generated_Source\PSoC4/cyfitter_cfg.c **** 
 120:.\Generated_Source\PSoC4/cyfitter_cfg.c ****     /* If nothing else, stop here since the clocks have not started         */
 121:.\Generated_Source\PSoC4/cyfitter_cfg.c ****     /* correctly.                                                           */
 122:.\Generated_Source\PSoC4/cyfitter_cfg.c ****     while(1) {}
 123:.\Generated_Source\PSoC4/cyfitter_cfg.c **** }
 124:.\Generated_Source\PSoC4/cyfitter_cfg.c **** #endif
 125:.\Generated_Source\PSoC4/cyfitter_cfg.c **** 
 126:.\Generated_Source\PSoC4/cyfitter_cfg.c **** #define CY_CFG_BASE_ADDR_COUNT 5u
 127:.\Generated_Source\PSoC4/cyfitter_cfg.c **** CYPACKED typedef struct
 128:.\Generated_Source\PSoC4/cyfitter_cfg.c **** {
 129:.\Generated_Source\PSoC4/cyfitter_cfg.c **** 	uint8 offset;
 130:.\Generated_Source\PSoC4/cyfitter_cfg.c **** 	uint8 value;
 131:.\Generated_Source\PSoC4/cyfitter_cfg.c **** } CYPACKED_ATTR cy_cfg_addrvalue_t;
 132:.\Generated_Source\PSoC4/cyfitter_cfg.c **** 
 133:.\Generated_Source\PSoC4/cyfitter_cfg.c **** 
 134:.\Generated_Source\PSoC4/cyfitter_cfg.c **** 
 135:.\Generated_Source\PSoC4/cyfitter_cfg.c **** /*******************************************************************************
 136:.\Generated_Source\PSoC4/cyfitter_cfg.c **** * Function Name: cfg_write_bytes32
 137:.\Generated_Source\PSoC4/cyfitter_cfg.c **** ********************************************************************************
 138:.\Generated_Source\PSoC4/cyfitter_cfg.c **** * Summary:
 139:.\Generated_Source\PSoC4/cyfitter_cfg.c **** *  This function is used for setting up the chip configuration areas that
 140:.\Generated_Source\PSoC4/cyfitter_cfg.c **** *  contain relatively sparse data.
 141:.\Generated_Source\PSoC4/cyfitter_cfg.c **** *
 142:.\Generated_Source\PSoC4/cyfitter_cfg.c **** * Parameters:
 143:.\Generated_Source\PSoC4/cyfitter_cfg.c **** *   void
 144:.\Generated_Source\PSoC4/cyfitter_cfg.c **** *
 145:.\Generated_Source\PSoC4/cyfitter_cfg.c **** * Return:
 146:.\Generated_Source\PSoC4/cyfitter_cfg.c **** *   void
 147:.\Generated_Source\PSoC4/cyfitter_cfg.c **** *
ARM GAS  C:\Users\Svilen\AppData\Local\Temp\ccowxtJU.s 			page 4


 148:.\Generated_Source\PSoC4/cyfitter_cfg.c **** *******************************************************************************/
 149:.\Generated_Source\PSoC4/cyfitter_cfg.c **** static void cfg_write_bytes32(const uint32 addr_table[], const cy_cfg_addrvalue_t data_table[]);
 150:.\Generated_Source\PSoC4/cyfitter_cfg.c **** static void cfg_write_bytes32(const uint32 addr_table[], const cy_cfg_addrvalue_t data_table[])
 151:.\Generated_Source\PSoC4/cyfitter_cfg.c **** {
  25              		.loc 1 151 0
  26              		.cfi_startproc
  27              	.LVL0:
  28 0000 F0B5     		push	{r4, r5, r6, r7, lr}
  29              		.cfi_def_cfa_offset 20
  30              		.cfi_offset 4, -20
  31              		.cfi_offset 5, -16
  32              		.cfi_offset 6, -12
  33              		.cfi_offset 7, -8
  34              		.cfi_offset 14, -4
  35              	.LVL1:
 152:.\Generated_Source\PSoC4/cyfitter_cfg.c **** 	/* For 32-bit little-endian architectures */
 153:.\Generated_Source\PSoC4/cyfitter_cfg.c **** 	uint32 i, j = 0u;
  36              		.loc 1 153 0
  37 0002 0025     		mov	r5, #0
 154:.\Generated_Source\PSoC4/cyfitter_cfg.c **** 	for (i = 0u; i < CY_CFG_BASE_ADDR_COUNT; i++)
  38              		.loc 1 154 0
  39 0004 0027     		mov	r7, #0
  40 0006 11E0     		b	.L2
  41              	.LVL2:
  42              	.L5:
  43              	.LBB2:
 155:.\Generated_Source\PSoC4/cyfitter_cfg.c **** 	{
 156:.\Generated_Source\PSoC4/cyfitter_cfg.c **** 		uint32 baseAddr = addr_table[i];
  44              		.loc 1 156 0
  45 0008 BB00     		lsl	r3, r7, #2
  46 000a C658     		ldr	r6, [r0, r3]
  47              	.LVL3:
 157:.\Generated_Source\PSoC4/cyfitter_cfg.c **** 		uint8 count = (uint8)baseAddr;
  48              		.loc 1 157 0
  49 000c F3B2     		uxtb	r3, r6
  50              	.LVL4:
 158:.\Generated_Source\PSoC4/cyfitter_cfg.c **** 		baseAddr &= 0xFFFFFF00u;
  51              		.loc 1 158 0
  52 000e FF22     		mov	r2, #255
  53 0010 9643     		bic	r6, r2
  54              	.LVL5:
 159:.\Generated_Source\PSoC4/cyfitter_cfg.c **** 		while (count != 0u)
  55              		.loc 1 159 0
  56 0012 08E0     		b	.L3
  57              	.L4:
 160:.\Generated_Source\PSoC4/cyfitter_cfg.c **** 		{
 161:.\Generated_Source\PSoC4/cyfitter_cfg.c **** 			CY_SET_XTND_REG8((void CYFAR *)(baseAddr + data_table[j].offset), data_table[j].value);
  58              		.loc 1 161 0
  59 0014 6A00     		lsl	r2, r5, #1
  60 0016 8A18     		add	r2, r1, r2
  61 0018 1478     		ldrb	r4, [r2]
  62 001a A419     		add	r4, r4, r6
  63 001c 5278     		ldrb	r2, [r2, #1]
  64 001e 2270     		strb	r2, [r4]
 162:.\Generated_Source\PSoC4/cyfitter_cfg.c **** 			j++;
  65              		.loc 1 162 0
  66 0020 0135     		add	r5, r5, #1
ARM GAS  C:\Users\Svilen\AppData\Local\Temp\ccowxtJU.s 			page 5


  67              	.LVL6:
 163:.\Generated_Source\PSoC4/cyfitter_cfg.c **** 			count--;
  68              		.loc 1 163 0
  69 0022 013B     		sub	r3, r3, #1
  70              	.LVL7:
  71 0024 DBB2     		uxtb	r3, r3
  72              	.LVL8:
  73              	.L3:
 159:.\Generated_Source\PSoC4/cyfitter_cfg.c **** 		{
  74              		.loc 1 159 0
  75 0026 002B     		cmp	r3, #0
  76 0028 F4D1     		bne	.L4
  77              	.LBE2:
 154:.\Generated_Source\PSoC4/cyfitter_cfg.c **** 	{
  78              		.loc 1 154 0 discriminator 2
  79 002a 0137     		add	r7, r7, #1
  80              	.LVL9:
  81              	.L2:
 154:.\Generated_Source\PSoC4/cyfitter_cfg.c **** 	{
  82              		.loc 1 154 0 is_stmt 0 discriminator 1
  83 002c 042F     		cmp	r7, #4
  84 002e EBD9     		bls	.L5
 164:.\Generated_Source\PSoC4/cyfitter_cfg.c **** 		}
 165:.\Generated_Source\PSoC4/cyfitter_cfg.c **** 	}
 166:.\Generated_Source\PSoC4/cyfitter_cfg.c **** }
  85              		.loc 1 166 0 is_stmt 1
  86              		@ sp needed
  87              	.LVL10:
  88              	.LVL11:
  89 0030 F0BD     		pop	{r4, r5, r6, r7, pc}
  90              		.cfi_endproc
  91              	.LFE3:
  92              		.size	cfg_write_bytes32, .-cfg_write_bytes32
  93 0032 C046     		.section	.text.CYMEMZERO,"ax",%progbits
  94              		.align	2
  95              		.code	16
  96              		.thumb_func
  97              		.type	CYMEMZERO, %function
  98              	CYMEMZERO:
  99              	.LFB0:
  62:.\Generated_Source\PSoC4/cyfitter_cfg.c **** 	(void)memset(s, 0, n);
 100              		.loc 1 62 0
 101              		.cfi_startproc
 102              	.LVL12:
 103 0000 08B5     		push	{r3, lr}
 104              		.cfi_def_cfa_offset 8
 105              		.cfi_offset 3, -8
 106              		.cfi_offset 14, -4
 107 0002 0A1C     		mov	r2, r1
  63:.\Generated_Source\PSoC4/cyfitter_cfg.c **** }
 108              		.loc 1 63 0
 109 0004 0021     		mov	r1, #0
 110              	.LVL13:
 111 0006 FFF7FEFF 		bl	memset
 112              	.LVL14:
  64:.\Generated_Source\PSoC4/cyfitter_cfg.c **** CY_CFG_UNUSED
 113              		.loc 1 64 0
ARM GAS  C:\Users\Svilen\AppData\Local\Temp\ccowxtJU.s 			page 6


 114              		@ sp needed
 115 000a 08BD     		pop	{r3, pc}
 116              		.cfi_endproc
 117              	.LFE0:
 118              		.size	CYMEMZERO, .-CYMEMZERO
 119              		.section	.psocinit,"ax",%progbits
 120              		.align	2
 121              		.code	16
 122              		.thumb_func
 123              		.type	ClockSetup, %function
 124              	ClockSetup:
 125              	.LFB4:
 167:.\Generated_Source\PSoC4/cyfitter_cfg.c **** 
 168:.\Generated_Source\PSoC4/cyfitter_cfg.c **** 
 169:.\Generated_Source\PSoC4/cyfitter_cfg.c **** /*******************************************************************************
 170:.\Generated_Source\PSoC4/cyfitter_cfg.c **** * Function Name: ClockSetup
 171:.\Generated_Source\PSoC4/cyfitter_cfg.c **** ********************************************************************************
 172:.\Generated_Source\PSoC4/cyfitter_cfg.c **** *
 173:.\Generated_Source\PSoC4/cyfitter_cfg.c **** * Summary:
 174:.\Generated_Source\PSoC4/cyfitter_cfg.c **** *   Performs the initialization of all of the clocks in the device based on the
 175:.\Generated_Source\PSoC4/cyfitter_cfg.c **** *   settings in the Clock tab of the DWR.  This includes enabling the requested
 176:.\Generated_Source\PSoC4/cyfitter_cfg.c **** *   clocks and setting the necessary dividers to produce the desired frequency. 
 177:.\Generated_Source\PSoC4/cyfitter_cfg.c **** *
 178:.\Generated_Source\PSoC4/cyfitter_cfg.c **** * Parameters:
 179:.\Generated_Source\PSoC4/cyfitter_cfg.c **** *   void
 180:.\Generated_Source\PSoC4/cyfitter_cfg.c **** *
 181:.\Generated_Source\PSoC4/cyfitter_cfg.c **** * Return:
 182:.\Generated_Source\PSoC4/cyfitter_cfg.c **** *   void
 183:.\Generated_Source\PSoC4/cyfitter_cfg.c **** *
 184:.\Generated_Source\PSoC4/cyfitter_cfg.c **** *******************************************************************************/
 185:.\Generated_Source\PSoC4/cyfitter_cfg.c **** static void ClockSetup(void);
 186:.\Generated_Source\PSoC4/cyfitter_cfg.c **** CY_CFG_SECTION
 187:.\Generated_Source\PSoC4/cyfitter_cfg.c **** static void ClockSetup(void)
 188:.\Generated_Source\PSoC4/cyfitter_cfg.c **** {
 126              		.loc 1 188 0
 127              		.cfi_startproc
 128 0000 38B5     		push	{r3, r4, r5, lr}
 129              		.cfi_def_cfa_offset 16
 130              		.cfi_offset 3, -16
 131              		.cfi_offset 4, -12
 132              		.cfi_offset 5, -8
 133              		.cfi_offset 14, -4
 189:.\Generated_Source\PSoC4/cyfitter_cfg.c **** 	/* Enable HALF_EN before trimming for the flash accelerator. */
 190:.\Generated_Source\PSoC4/cyfitter_cfg.c **** 	CY_SET_REG32((void CYXDATA *)(CYREG_CLK_SELECT), (CY_GET_REG32((void *)CYREG_CLK_SELECT) | 0x00040
 134              		.loc 1 190 0
 135 0002 134C     		ldr	r4, .L8
 136 0004 2368     		ldr	r3, [r4]
 137 0006 8022     		mov	r2, #128
 138 0008 D202     		lsl	r2, r2, #11
 139 000a 1343     		orr	r3, r2
 140 000c 2360     		str	r3, [r4]
 191:.\Generated_Source\PSoC4/cyfitter_cfg.c **** 
 192:.\Generated_Source\PSoC4/cyfitter_cfg.c **** 	/* Setup and trim IMO based on desired frequency. */
 193:.\Generated_Source\PSoC4/cyfitter_cfg.c **** 	CySysClkWriteImoFreq(24u);
 141              		.loc 1 193 0
 142 000e 1820     		mov	r0, #24
 143 0010 FFF7FEFF 		bl	CySysClkWriteImoFreq
ARM GAS  C:\Users\Svilen\AppData\Local\Temp\ccowxtJU.s 			page 7


 144              	.LVL15:
 194:.\Generated_Source\PSoC4/cyfitter_cfg.c **** 
 195:.\Generated_Source\PSoC4/cyfitter_cfg.c **** 	/* Disable HALF_EN since it is not required at this IMO frequency. */
 196:.\Generated_Source\PSoC4/cyfitter_cfg.c **** 	CY_SET_REG32((void CYXDATA *)(CYREG_CLK_SELECT), (CY_GET_REG32((void *)CYREG_CLK_SELECT) & 0xFFFBF
 145              		.loc 1 196 0
 146 0014 2268     		ldr	r2, [r4]
 147 0016 0F4B     		ldr	r3, .L8+4
 148 0018 1340     		and	r3, r2
 149 001a 2360     		str	r3, [r4]
 197:.\Generated_Source\PSoC4/cyfitter_cfg.c **** 	/* CYDEV_CLK_ILO_CONFIG Starting address: CYDEV_CLK_ILO_CONFIG */
 198:.\Generated_Source\PSoC4/cyfitter_cfg.c **** 	CY_SET_XTND_REG32((void CYFAR *)(CYREG_CLK_ILO_CONFIG), 0x80000006u);
 150              		.loc 1 198 0
 151 001c 0E4A     		ldr	r2, .L8+8
 152 001e 0F4B     		ldr	r3, .L8+12
 153 0020 1A60     		str	r2, [r3]
 199:.\Generated_Source\PSoC4/cyfitter_cfg.c **** 
 200:.\Generated_Source\PSoC4/cyfitter_cfg.c **** 
 201:.\Generated_Source\PSoC4/cyfitter_cfg.c **** 	/* CYDEV_CLK_SELECT00 Starting address: CYDEV_CLK_SELECT00 */
 202:.\Generated_Source\PSoC4/cyfitter_cfg.c **** 	CY_SET_XTND_REG32((void CYFAR *)(CYREG_CLK_SELECT07), 0x00000010u);
 154              		.loc 1 202 0
 155 0022 1022     		mov	r2, #16
 156 0024 0E4B     		ldr	r3, .L8+16
 157 0026 1A60     		str	r2, [r3]
 203:.\Generated_Source\PSoC4/cyfitter_cfg.c **** 
 204:.\Generated_Source\PSoC4/cyfitter_cfg.c **** 	/* CYDEV_CLK_IMO_CONFIG Starting address: CYDEV_CLK_IMO_CONFIG */
 205:.\Generated_Source\PSoC4/cyfitter_cfg.c **** 	CY_SET_XTND_REG32((void CYFAR *)(CYREG_CLK_IMO_CONFIG), 0x82000000u);
 158              		.loc 1 205 0
 159 0028 8222     		mov	r2, #130
 160 002a 1206     		lsl	r2, r2, #24
 161 002c 0D4B     		ldr	r3, .L8+20
 162 002e 1A60     		str	r2, [r3]
 206:.\Generated_Source\PSoC4/cyfitter_cfg.c **** 
 207:.\Generated_Source\PSoC4/cyfitter_cfg.c **** 	/* CYDEV_CLK_SELECT Starting address: CYDEV_CLK_SELECT */
 208:.\Generated_Source\PSoC4/cyfitter_cfg.c **** 	CY_SET_XTND_REG32((void CYFAR *)(CYREG_CLK_SELECT), 0x00000000u);
 163              		.loc 1 208 0
 164 0030 0025     		mov	r5, #0
 165 0032 2560     		str	r5, [r4]
 209:.\Generated_Source\PSoC4/cyfitter_cfg.c **** 
 210:.\Generated_Source\PSoC4/cyfitter_cfg.c **** 	/* CYDEV_CLK_DIVIDER_A00 Starting address: CYDEV_CLK_DIVIDER_A00 */
 211:.\Generated_Source\PSoC4/cyfitter_cfg.c **** 	CY_SET_XTND_REG32((void CYFAR *)(CYREG_CLK_DIVIDER_A00), 0x80000009u);
 166              		.loc 1 211 0
 167 0034 0C4A     		ldr	r2, .L8+24
 168 0036 0D4B     		ldr	r3, .L8+28
 169 0038 1A60     		str	r2, [r3]
 212:.\Generated_Source\PSoC4/cyfitter_cfg.c **** 
 213:.\Generated_Source\PSoC4/cyfitter_cfg.c **** 	(void)CyIntSetVector(9u, &CySysWdtIsr);
 170              		.loc 1 213 0
 171 003a 0920     		mov	r0, #9
 172 003c 0C49     		ldr	r1, .L8+32
 173 003e FFF7FEFF 		bl	CyIntSetVector
 174              	.LVL16:
 214:.\Generated_Source\PSoC4/cyfitter_cfg.c **** 	CyIntEnable(9u);
 175              		.loc 1 214 0
 176 0042 0920     		mov	r0, #9
 177 0044 FFF7FEFF 		bl	CyIntEnable
 178              	.LVL17:
 215:.\Generated_Source\PSoC4/cyfitter_cfg.c **** 	CY_SET_XTND_REG32((void CYFAR *)(CYREG_WDT_CONFIG), 0x00000000u);
ARM GAS  C:\Users\Svilen\AppData\Local\Temp\ccowxtJU.s 			page 8


 179              		.loc 1 215 0
 180 0048 0A4B     		ldr	r3, .L8+36
 181 004a 1D60     		str	r5, [r3]
 216:.\Generated_Source\PSoC4/cyfitter_cfg.c **** }
 182              		.loc 1 216 0
 183              		@ sp needed
 184 004c 38BD     		pop	{r3, r4, r5, pc}
 185              	.L9:
 186 004e C046     		.align	2
 187              	.L8:
 188 0050 00010B40 		.word	1074462976
 189 0054 FFFFFBFF 		.word	-262145
 190 0058 06000080 		.word	-2147483642
 191 005c 04010B40 		.word	1074462980
 192 0060 1C020240 		.word	1073873436
 193 0064 08010B40 		.word	1074462984
 194 0068 09000080 		.word	-2147483639
 195 006c 00000240 		.word	1073872896
 196 0070 00000000 		.word	CySysWdtIsr
 197 0074 0C020B40 		.word	1074463244
 198              		.cfi_endproc
 199              	.LFE4:
 200              		.size	ClockSetup, .-ClockSetup
 201              		.section	.text.SetAnalogRoutingPumps,"ax",%progbits
 202              		.align	2
 203              		.global	SetAnalogRoutingPumps
 204              		.code	16
 205              		.thumb_func
 206              		.type	SetAnalogRoutingPumps, %function
 207              	SetAnalogRoutingPumps:
 208              	.LFB6:
 217:.\Generated_Source\PSoC4/cyfitter_cfg.c **** 
 218:.\Generated_Source\PSoC4/cyfitter_cfg.c **** 
 219:.\Generated_Source\PSoC4/cyfitter_cfg.c **** /* Analog API Functions */
 220:.\Generated_Source\PSoC4/cyfitter_cfg.c **** 
 221:.\Generated_Source\PSoC4/cyfitter_cfg.c **** 
 222:.\Generated_Source\PSoC4/cyfitter_cfg.c **** /*******************************************************************************
 223:.\Generated_Source\PSoC4/cyfitter_cfg.c **** * Function Name: AnalogSetDefault
 224:.\Generated_Source\PSoC4/cyfitter_cfg.c **** ********************************************************************************
 225:.\Generated_Source\PSoC4/cyfitter_cfg.c **** *
 226:.\Generated_Source\PSoC4/cyfitter_cfg.c **** * Summary:
 227:.\Generated_Source\PSoC4/cyfitter_cfg.c **** *  Sets up the analog portions of the chip to default values based on chip
 228:.\Generated_Source\PSoC4/cyfitter_cfg.c **** *  configuration options from the project.
 229:.\Generated_Source\PSoC4/cyfitter_cfg.c **** *
 230:.\Generated_Source\PSoC4/cyfitter_cfg.c **** * Parameters:
 231:.\Generated_Source\PSoC4/cyfitter_cfg.c **** *  void
 232:.\Generated_Source\PSoC4/cyfitter_cfg.c **** *
 233:.\Generated_Source\PSoC4/cyfitter_cfg.c **** * Return:
 234:.\Generated_Source\PSoC4/cyfitter_cfg.c **** *  void
 235:.\Generated_Source\PSoC4/cyfitter_cfg.c **** *
 236:.\Generated_Source\PSoC4/cyfitter_cfg.c **** *******************************************************************************/
 237:.\Generated_Source\PSoC4/cyfitter_cfg.c **** static void AnalogSetDefault(void);
 238:.\Generated_Source\PSoC4/cyfitter_cfg.c **** static void AnalogSetDefault(void)
 239:.\Generated_Source\PSoC4/cyfitter_cfg.c **** {
 240:.\Generated_Source\PSoC4/cyfitter_cfg.c **** 	CY_SET_XTND_REG32((void CYFAR *)CYREG_SAR_MUX_SWITCH0, 0x000C0000u);
 241:.\Generated_Source\PSoC4/cyfitter_cfg.c **** 	CY_SET_XTND_REG32((void CYFAR *)CYREG_SAR_MUX_SWITCH_HW_CTRL, 0x000C0000u);
 242:.\Generated_Source\PSoC4/cyfitter_cfg.c **** 	SetAnalogRoutingPumps(1);
ARM GAS  C:\Users\Svilen\AppData\Local\Temp\ccowxtJU.s 			page 9


 243:.\Generated_Source\PSoC4/cyfitter_cfg.c **** }
 244:.\Generated_Source\PSoC4/cyfitter_cfg.c **** 
 245:.\Generated_Source\PSoC4/cyfitter_cfg.c **** 
 246:.\Generated_Source\PSoC4/cyfitter_cfg.c **** /*******************************************************************************
 247:.\Generated_Source\PSoC4/cyfitter_cfg.c **** * Function Name: SetAnalogRoutingPumps
 248:.\Generated_Source\PSoC4/cyfitter_cfg.c **** ********************************************************************************
 249:.\Generated_Source\PSoC4/cyfitter_cfg.c **** *
 250:.\Generated_Source\PSoC4/cyfitter_cfg.c **** * Summary:
 251:.\Generated_Source\PSoC4/cyfitter_cfg.c **** * Enables or disables the analog pumps feeding analog routing switches.
 252:.\Generated_Source\PSoC4/cyfitter_cfg.c **** * Intended to be called at startup, based on the Vdda system configuration;
 253:.\Generated_Source\PSoC4/cyfitter_cfg.c **** * may be called during operation when the user informs us that the Vdda voltage crossed the pump th
 254:.\Generated_Source\PSoC4/cyfitter_cfg.c **** *
 255:.\Generated_Source\PSoC4/cyfitter_cfg.c **** * Parameters:
 256:.\Generated_Source\PSoC4/cyfitter_cfg.c **** *  enabled - 1 to enable the pumps, 0 to disable the pumps
 257:.\Generated_Source\PSoC4/cyfitter_cfg.c **** *
 258:.\Generated_Source\PSoC4/cyfitter_cfg.c **** * Return:
 259:.\Generated_Source\PSoC4/cyfitter_cfg.c **** *  void
 260:.\Generated_Source\PSoC4/cyfitter_cfg.c **** *
 261:.\Generated_Source\PSoC4/cyfitter_cfg.c **** *******************************************************************************/
 262:.\Generated_Source\PSoC4/cyfitter_cfg.c **** void SetAnalogRoutingPumps(uint8 enabled)
 263:.\Generated_Source\PSoC4/cyfitter_cfg.c **** {
 209              		.loc 1 263 0
 210              		.cfi_startproc
 211              	.LVL18:
 264:.\Generated_Source\PSoC4/cyfitter_cfg.c **** 	uint32 regValue = CY_GET_XTND_REG32((void *)(CYREG_SAR_PUMP_CTRL));
 212              		.loc 1 264 0
 213 0000 064B     		ldr	r3, .L13
 214 0002 1B68     		ldr	r3, [r3]
 215              	.LVL19:
 265:.\Generated_Source\PSoC4/cyfitter_cfg.c **** 	if (enabled != 0u)
 216              		.loc 1 265 0
 217 0004 0028     		cmp	r0, #0
 218 0006 03D0     		beq	.L11
 266:.\Generated_Source\PSoC4/cyfitter_cfg.c **** 	{
 267:.\Generated_Source\PSoC4/cyfitter_cfg.c **** 		regValue |= 0x80000000u;
 219              		.loc 1 267 0
 220 0008 8022     		mov	r2, #128
 221 000a 1206     		lsl	r2, r2, #24
 222 000c 1343     		orr	r3, r2
 223              	.LVL20:
 224 000e 01E0     		b	.L12
 225              	.L11:
 268:.\Generated_Source\PSoC4/cyfitter_cfg.c **** 	}
 269:.\Generated_Source\PSoC4/cyfitter_cfg.c **** 	else
 270:.\Generated_Source\PSoC4/cyfitter_cfg.c **** 	{
 271:.\Generated_Source\PSoC4/cyfitter_cfg.c **** 		regValue &= ~0x80000000u;
 226              		.loc 1 271 0
 227 0010 5B00     		lsl	r3, r3, #1
 228              	.LVL21:
 229 0012 5B08     		lsr	r3, r3, #1
 230              	.LVL22:
 231              	.L12:
 272:.\Generated_Source\PSoC4/cyfitter_cfg.c **** 	}
 273:.\Generated_Source\PSoC4/cyfitter_cfg.c **** 	CY_SET_XTND_REG32((void *)(CYREG_SAR_PUMP_CTRL), regValue);
 232              		.loc 1 273 0
 233 0014 014A     		ldr	r2, .L13
 234 0016 1360     		str	r3, [r2]
ARM GAS  C:\Users\Svilen\AppData\Local\Temp\ccowxtJU.s 			page 10


 274:.\Generated_Source\PSoC4/cyfitter_cfg.c **** }
 235              		.loc 1 274 0
 236              		@ sp needed
 237 0018 7047     		bx	lr
 238              	.L14:
 239 001a C046     		.align	2
 240              	.L13:
 241 001c 80031A40 		.word	1075446656
 242              		.cfi_endproc
 243              	.LFE6:
 244              		.size	SetAnalogRoutingPumps, .-SetAnalogRoutingPumps
 245              		.section	.text.AnalogSetDefault,"ax",%progbits
 246              		.align	2
 247              		.code	16
 248              		.thumb_func
 249              		.type	AnalogSetDefault, %function
 250              	AnalogSetDefault:
 251              	.LFB5:
 239:.\Generated_Source\PSoC4/cyfitter_cfg.c **** 	CY_SET_XTND_REG32((void CYFAR *)CYREG_SAR_MUX_SWITCH0, 0x000C0000u);
 252              		.loc 1 239 0
 253              		.cfi_startproc
 254 0000 08B5     		push	{r3, lr}
 255              		.cfi_def_cfa_offset 8
 256              		.cfi_offset 3, -8
 257              		.cfi_offset 14, -4
 240:.\Generated_Source\PSoC4/cyfitter_cfg.c **** 	CY_SET_XTND_REG32((void CYFAR *)CYREG_SAR_MUX_SWITCH_HW_CTRL, 0x000C0000u);
 258              		.loc 1 240 0
 259 0002 C023     		mov	r3, #192
 260 0004 1B03     		lsl	r3, r3, #12
 261 0006 044A     		ldr	r2, .L16
 262 0008 1360     		str	r3, [r2]
 241:.\Generated_Source\PSoC4/cyfitter_cfg.c **** 	SetAnalogRoutingPumps(1);
 263              		.loc 1 241 0
 264 000a 044A     		ldr	r2, .L16+4
 265 000c 1360     		str	r3, [r2]
 242:.\Generated_Source\PSoC4/cyfitter_cfg.c **** }
 266              		.loc 1 242 0
 267 000e 0120     		mov	r0, #1
 268 0010 FFF7FEFF 		bl	SetAnalogRoutingPumps
 269              	.LVL23:
 243:.\Generated_Source\PSoC4/cyfitter_cfg.c **** 
 270              		.loc 1 243 0
 271              		@ sp needed
 272 0014 08BD     		pop	{r3, pc}
 273              	.L17:
 274 0016 C046     		.align	2
 275              	.L16:
 276 0018 00031A40 		.word	1075446528
 277 001c 40031A40 		.word	1075446592
 278              		.cfi_endproc
 279              	.LFE5:
 280              		.size	AnalogSetDefault, .-AnalogSetDefault
 281              		.section	.text.AMux_Set,"ax",%progbits
 282              		.align	2
 283              		.global	AMux_Set
 284              		.code	16
 285              		.thumb_func
ARM GAS  C:\Users\Svilen\AppData\Local\Temp\ccowxtJU.s 			page 11


 286              		.type	AMux_Set, %function
 287              	AMux_Set:
 288              	.LFB7:
 275:.\Generated_Source\PSoC4/cyfitter_cfg.c **** 
 276:.\Generated_Source\PSoC4/cyfitter_cfg.c **** #define CY_AMUX_UNUSED CYREG_CM0_ROM_DWT
 277:.\Generated_Source\PSoC4/cyfitter_cfg.c **** /*******************************************************************************
 278:.\Generated_Source\PSoC4/cyfitter_cfg.c **** * Function Name: AMux_Set
 279:.\Generated_Source\PSoC4/cyfitter_cfg.c **** ********************************************************************************
 280:.\Generated_Source\PSoC4/cyfitter_cfg.c **** * Summary:
 281:.\Generated_Source\PSoC4/cyfitter_cfg.c **** *  This function is used to set a particular channel as active on the AMux.
 282:.\Generated_Source\PSoC4/cyfitter_cfg.c **** *
 283:.\Generated_Source\PSoC4/cyfitter_cfg.c **** * Parameters:  
 284:.\Generated_Source\PSoC4/cyfitter_cfg.c **** *   channel - The mux channel input to set as active
 285:.\Generated_Source\PSoC4/cyfitter_cfg.c **** *
 286:.\Generated_Source\PSoC4/cyfitter_cfg.c **** * Return:
 287:.\Generated_Source\PSoC4/cyfitter_cfg.c **** *   void
 288:.\Generated_Source\PSoC4/cyfitter_cfg.c **** *
 289:.\Generated_Source\PSoC4/cyfitter_cfg.c **** *******************************************************************************/
 290:.\Generated_Source\PSoC4/cyfitter_cfg.c **** void AMux_Set(uint8 channel)
 291:.\Generated_Source\PSoC4/cyfitter_cfg.c **** {
 289              		.loc 1 291 0
 290              		.cfi_startproc
 291              	.LVL24:
 292:.\Generated_Source\PSoC4/cyfitter_cfg.c **** 	switch (channel) {
 292              		.loc 1 292 0
 293 0000 0128     		cmp	r0, #1
 294 0002 0AD0     		beq	.L20
 295 0004 0028     		cmp	r0, #0
 296 0006 02D0     		beq	.L21
 297 0008 0228     		cmp	r0, #2
 298 000a 0CD0     		beq	.L22
 299 000c 11E0     		b	.L18
 300              	.L21:
 293:.\Generated_Source\PSoC4/cyfitter_cfg.c **** 		case 0u:
 294:.\Generated_Source\PSoC4/cyfitter_cfg.c **** 			CY_SET_REG32((void CYXDATA *)CYREG_HSIOM_PORT_SEL3, (CY_GET_REG32((void CYXDATA *)CYREG_HSIOM_PO
 301              		.loc 1 294 0
 302 000e 094A     		ldr	r2, .L23
 303 0010 1168     		ldr	r1, [r2]
 304 0012 0623     		mov	r3, #6
 305 0014 0B43     		orr	r3, r1
 306 0016 1360     		str	r3, [r2]
 295:.\Generated_Source\PSoC4/cyfitter_cfg.c **** 			break;
 307              		.loc 1 295 0
 308 0018 0BE0     		b	.L18
 309              	.L20:
 296:.\Generated_Source\PSoC4/cyfitter_cfg.c **** 		case 1u:
 297:.\Generated_Source\PSoC4/cyfitter_cfg.c **** 			CY_SET_REG32((void CYXDATA *)CYREG_HSIOM_PORT_SEL3, (CY_GET_REG32((void CYXDATA *)CYREG_HSIOM_PO
 310              		.loc 1 297 0
 311 001a 064A     		ldr	r2, .L23
 312 001c 1168     		ldr	r1, [r2]
 313 001e 6023     		mov	r3, #96
 314 0020 0B43     		orr	r3, r1
 315 0022 1360     		str	r3, [r2]
 298:.\Generated_Source\PSoC4/cyfitter_cfg.c **** 			break;
 316              		.loc 1 298 0
 317 0024 05E0     		b	.L18
 318              	.L22:
ARM GAS  C:\Users\Svilen\AppData\Local\Temp\ccowxtJU.s 			page 12


 299:.\Generated_Source\PSoC4/cyfitter_cfg.c **** 		case 2u:
 300:.\Generated_Source\PSoC4/cyfitter_cfg.c **** 			CY_SET_REG32((void CYXDATA *)CYREG_HSIOM_PORT_SEL3, (CY_GET_REG32((void CYXDATA *)CYREG_HSIOM_PO
 319              		.loc 1 300 0
 320 0026 034A     		ldr	r2, .L23
 321 0028 1368     		ldr	r3, [r2]
 322 002a C021     		mov	r1, #192
 323 002c C902     		lsl	r1, r1, #11
 324 002e 0B43     		orr	r3, r1
 325 0030 1360     		str	r3, [r2]
 326              	.L18:
 301:.\Generated_Source\PSoC4/cyfitter_cfg.c **** 			break;
 302:.\Generated_Source\PSoC4/cyfitter_cfg.c **** 		default:
 303:.\Generated_Source\PSoC4/cyfitter_cfg.c **** 			break;
 304:.\Generated_Source\PSoC4/cyfitter_cfg.c **** 	}
 305:.\Generated_Source\PSoC4/cyfitter_cfg.c **** }
 327              		.loc 1 305 0
 328              		@ sp needed
 329 0032 7047     		bx	lr
 330              	.L24:
 331              		.align	2
 332              	.L23:
 333 0034 0C000140 		.word	1073807372
 334              		.cfi_endproc
 335              	.LFE7:
 336              		.size	AMux_Set, .-AMux_Set
 337              		.section	.text.AMux_Unset,"ax",%progbits
 338              		.align	2
 339              		.global	AMux_Unset
 340              		.code	16
 341              		.thumb_func
 342              		.type	AMux_Unset, %function
 343              	AMux_Unset:
 344              	.LFB8:
 306:.\Generated_Source\PSoC4/cyfitter_cfg.c **** 
 307:.\Generated_Source\PSoC4/cyfitter_cfg.c **** /*******************************************************************************
 308:.\Generated_Source\PSoC4/cyfitter_cfg.c **** * Function Name: AMux_Unset
 309:.\Generated_Source\PSoC4/cyfitter_cfg.c **** ********************************************************************************
 310:.\Generated_Source\PSoC4/cyfitter_cfg.c **** * Summary:
 311:.\Generated_Source\PSoC4/cyfitter_cfg.c **** *  This function is used to clear a particular channel from being active on the
 312:.\Generated_Source\PSoC4/cyfitter_cfg.c **** *  AMux.
 313:.\Generated_Source\PSoC4/cyfitter_cfg.c **** *
 314:.\Generated_Source\PSoC4/cyfitter_cfg.c **** * Parameters:  
 315:.\Generated_Source\PSoC4/cyfitter_cfg.c **** *   channel - The mux channel input to mark inactive
 316:.\Generated_Source\PSoC4/cyfitter_cfg.c **** *
 317:.\Generated_Source\PSoC4/cyfitter_cfg.c **** * Return:
 318:.\Generated_Source\PSoC4/cyfitter_cfg.c **** *   void
 319:.\Generated_Source\PSoC4/cyfitter_cfg.c **** *
 320:.\Generated_Source\PSoC4/cyfitter_cfg.c **** *******************************************************************************/
 321:.\Generated_Source\PSoC4/cyfitter_cfg.c **** void AMux_Unset(uint8 channel)
 322:.\Generated_Source\PSoC4/cyfitter_cfg.c **** {
 345              		.loc 1 322 0
 346              		.cfi_startproc
 347              	.LVL25:
 323:.\Generated_Source\PSoC4/cyfitter_cfg.c **** 	switch (channel) {
 348              		.loc 1 323 0
 349 0000 0128     		cmp	r0, #1
 350 0002 0AD0     		beq	.L27
ARM GAS  C:\Users\Svilen\AppData\Local\Temp\ccowxtJU.s 			page 13


 351 0004 0028     		cmp	r0, #0
 352 0006 02D0     		beq	.L28
 353 0008 0228     		cmp	r0, #2
 354 000a 0CD0     		beq	.L29
 355 000c 10E0     		b	.L25
 356              	.L28:
 324:.\Generated_Source\PSoC4/cyfitter_cfg.c **** 		case 0u:
 325:.\Generated_Source\PSoC4/cyfitter_cfg.c **** 			CY_SET_REG32((void CYXDATA *)CYREG_HSIOM_PORT_SEL3, (CY_GET_REG32((void CYXDATA *)CYREG_HSIOM_PO
 357              		.loc 1 325 0
 358 000e 094A     		ldr	r2, .L30
 359 0010 1368     		ldr	r3, [r2]
 360 0012 0621     		mov	r1, #6
 361 0014 8B43     		bic	r3, r1
 362 0016 1360     		str	r3, [r2]
 326:.\Generated_Source\PSoC4/cyfitter_cfg.c **** 			break;
 363              		.loc 1 326 0
 364 0018 0AE0     		b	.L25
 365              	.L27:
 327:.\Generated_Source\PSoC4/cyfitter_cfg.c **** 		case 1u:
 328:.\Generated_Source\PSoC4/cyfitter_cfg.c **** 			CY_SET_REG32((void CYXDATA *)CYREG_HSIOM_PORT_SEL3, (CY_GET_REG32((void CYXDATA *)CYREG_HSIOM_PO
 366              		.loc 1 328 0
 367 001a 064A     		ldr	r2, .L30
 368 001c 1368     		ldr	r3, [r2]
 369 001e 6021     		mov	r1, #96
 370 0020 8B43     		bic	r3, r1
 371 0022 1360     		str	r3, [r2]
 329:.\Generated_Source\PSoC4/cyfitter_cfg.c **** 			break;
 372              		.loc 1 329 0
 373 0024 04E0     		b	.L25
 374              	.L29:
 330:.\Generated_Source\PSoC4/cyfitter_cfg.c **** 		case 2u:
 331:.\Generated_Source\PSoC4/cyfitter_cfg.c **** 			CY_SET_REG32((void CYXDATA *)CYREG_HSIOM_PORT_SEL3, (CY_GET_REG32((void CYXDATA *)CYREG_HSIOM_PO
 375              		.loc 1 331 0
 376 0026 034A     		ldr	r2, .L30
 377 0028 1168     		ldr	r1, [r2]
 378 002a 034B     		ldr	r3, .L30+4
 379 002c 0B40     		and	r3, r1
 380 002e 1360     		str	r3, [r2]
 381              	.L25:
 332:.\Generated_Source\PSoC4/cyfitter_cfg.c **** 			break;
 333:.\Generated_Source\PSoC4/cyfitter_cfg.c **** 		default:
 334:.\Generated_Source\PSoC4/cyfitter_cfg.c **** 			break;
 335:.\Generated_Source\PSoC4/cyfitter_cfg.c **** 	}
 336:.\Generated_Source\PSoC4/cyfitter_cfg.c **** }
 382              		.loc 1 336 0
 383              		@ sp needed
 384 0030 7047     		bx	lr
 385              	.L31:
 386 0032 C046     		.align	2
 387              	.L30:
 388 0034 0C000140 		.word	1073807372
 389 0038 FFFFF9FF 		.word	-393217
 390              		.cfi_endproc
 391              	.LFE8:
 392              		.size	AMux_Unset, .-AMux_Unset
 393              		.section	.psocinit
 394              		.align	2
ARM GAS  C:\Users\Svilen\AppData\Local\Temp\ccowxtJU.s 			page 14


 395              		.global	cyfitter_cfg
 396              		.code	16
 397              		.thumb_func
 398              		.type	cyfitter_cfg, %function
 399              	cyfitter_cfg:
 400              	.LFB9:
 337:.\Generated_Source\PSoC4/cyfitter_cfg.c **** 
 338:.\Generated_Source\PSoC4/cyfitter_cfg.c **** 
 339:.\Generated_Source\PSoC4/cyfitter_cfg.c **** 
 340:.\Generated_Source\PSoC4/cyfitter_cfg.c **** /*******************************************************************************
 341:.\Generated_Source\PSoC4/cyfitter_cfg.c **** * Function Name: cyfitter_cfg
 342:.\Generated_Source\PSoC4/cyfitter_cfg.c **** ********************************************************************************
 343:.\Generated_Source\PSoC4/cyfitter_cfg.c **** * Summary:
 344:.\Generated_Source\PSoC4/cyfitter_cfg.c **** *  This function is called by the start-up code for the selected device. It
 345:.\Generated_Source\PSoC4/cyfitter_cfg.c **** *  performs all of the necessary device configuration based on the design
 346:.\Generated_Source\PSoC4/cyfitter_cfg.c **** *  settings.  This includes settings from the Design Wide Resources (DWR) such
 347:.\Generated_Source\PSoC4/cyfitter_cfg.c **** *  as Clocks and Pins as well as any component configuration that is necessary.
 348:.\Generated_Source\PSoC4/cyfitter_cfg.c **** *
 349:.\Generated_Source\PSoC4/cyfitter_cfg.c **** * Parameters:  
 350:.\Generated_Source\PSoC4/cyfitter_cfg.c **** *   void
 351:.\Generated_Source\PSoC4/cyfitter_cfg.c **** *
 352:.\Generated_Source\PSoC4/cyfitter_cfg.c **** * Return:
 353:.\Generated_Source\PSoC4/cyfitter_cfg.c **** *   void
 354:.\Generated_Source\PSoC4/cyfitter_cfg.c **** *
 355:.\Generated_Source\PSoC4/cyfitter_cfg.c **** *******************************************************************************/
 356:.\Generated_Source\PSoC4/cyfitter_cfg.c **** CY_CFG_SECTION
 357:.\Generated_Source\PSoC4/cyfitter_cfg.c **** void cyfitter_cfg(void)
 358:.\Generated_Source\PSoC4/cyfitter_cfg.c **** {
 401              		.loc 1 358 0
 402              		.cfi_startproc
 403 0078 10B5     		push	{r4, lr}
 404              		.cfi_def_cfa_offset 8
 405              		.cfi_offset 4, -8
 406              		.cfi_offset 14, -4
 359:.\Generated_Source\PSoC4/cyfitter_cfg.c **** 	/* Disable interrupts by default. Let user enable if/when they want. */
 360:.\Generated_Source\PSoC4/cyfitter_cfg.c **** 	CyGlobalIntDisable;
 407              		.loc 1 360 0
 408              	@ 360 ".\Generated_Source\PSoC4\cyfitter_cfg.c" 1
 409 007a 72B6     		CPSID   i
 410              	@ 0 "" 2
 411              	.LVL26:
 412              		.code	16
 413              	.LBB3:
 361:.\Generated_Source\PSoC4/cyfitter_cfg.c **** 
 362:.\Generated_Source\PSoC4/cyfitter_cfg.c **** 	{
 363:.\Generated_Source\PSoC4/cyfitter_cfg.c **** 		static const uint32 CYCODE cy_cfg_addr_table[] = {
 364:.\Generated_Source\PSoC4/cyfitter_cfg.c **** 			0x400F3004u, /* Base address: 0x400F3000 Count: 4 */
 365:.\Generated_Source\PSoC4/cyfitter_cfg.c **** 			0x400F3101u, /* Base address: 0x400F3100 Count: 1 */
 366:.\Generated_Source\PSoC4/cyfitter_cfg.c **** 			0x400F3301u, /* Base address: 0x400F3300 Count: 1 */
 367:.\Generated_Source\PSoC4/cyfitter_cfg.c **** 			0x400F4202u, /* Base address: 0x400F4200 Count: 2 */
 368:.\Generated_Source\PSoC4/cyfitter_cfg.c **** 			0x400F4309u, /* Base address: 0x400F4300 Count: 9 */
 369:.\Generated_Source\PSoC4/cyfitter_cfg.c **** 		};
 370:.\Generated_Source\PSoC4/cyfitter_cfg.c **** 
 371:.\Generated_Source\PSoC4/cyfitter_cfg.c **** 		static const cy_cfg_addrvalue_t CYCODE cy_cfg_data_table[] = {
 372:.\Generated_Source\PSoC4/cyfitter_cfg.c **** 			{0x38u, 0xA0u},
 373:.\Generated_Source\PSoC4/cyfitter_cfg.c **** 			{0x3Eu, 0x50u},
 374:.\Generated_Source\PSoC4/cyfitter_cfg.c **** 			{0x58u, 0x04u},
ARM GAS  C:\Users\Svilen\AppData\Local\Temp\ccowxtJU.s 			page 15


 375:.\Generated_Source\PSoC4/cyfitter_cfg.c **** 			{0x5Fu, 0x01u},
 376:.\Generated_Source\PSoC4/cyfitter_cfg.c **** 			{0x18u, 0x05u},
 377:.\Generated_Source\PSoC4/cyfitter_cfg.c **** 			{0xB4u, 0x05u},
 378:.\Generated_Source\PSoC4/cyfitter_cfg.c **** 			{0x6Cu, 0x40u},
 379:.\Generated_Source\PSoC4/cyfitter_cfg.c **** 			{0xDCu, 0x02u},
 380:.\Generated_Source\PSoC4/cyfitter_cfg.c **** 			{0x54u, 0x02u},
 381:.\Generated_Source\PSoC4/cyfitter_cfg.c **** 			{0x61u, 0x02u},
 382:.\Generated_Source\PSoC4/cyfitter_cfg.c **** 			{0xA0u, 0x02u},
 383:.\Generated_Source\PSoC4/cyfitter_cfg.c **** 			{0xA1u, 0x02u},
 384:.\Generated_Source\PSoC4/cyfitter_cfg.c **** 			{0xB4u, 0x42u},
 385:.\Generated_Source\PSoC4/cyfitter_cfg.c **** 			{0xB5u, 0x02u},
 386:.\Generated_Source\PSoC4/cyfitter_cfg.c **** 			{0xD6u, 0x04u},
 387:.\Generated_Source\PSoC4/cyfitter_cfg.c **** 			{0xD8u, 0x02u},
 388:.\Generated_Source\PSoC4/cyfitter_cfg.c **** 			{0xECu, 0x0Au},
 389:.\Generated_Source\PSoC4/cyfitter_cfg.c **** 		};
 390:.\Generated_Source\PSoC4/cyfitter_cfg.c **** 
 391:.\Generated_Source\PSoC4/cyfitter_cfg.c **** 
 392:.\Generated_Source\PSoC4/cyfitter_cfg.c **** 
 393:.\Generated_Source\PSoC4/cyfitter_cfg.c **** 		CYPACKED typedef struct {
 394:.\Generated_Source\PSoC4/cyfitter_cfg.c **** 			void CYFAR *address;
 395:.\Generated_Source\PSoC4/cyfitter_cfg.c **** 			uint16 size;
 396:.\Generated_Source\PSoC4/cyfitter_cfg.c **** 		} CYPACKED_ATTR cfg_memset_t;
 397:.\Generated_Source\PSoC4/cyfitter_cfg.c **** 
 398:.\Generated_Source\PSoC4/cyfitter_cfg.c **** 		static const cfg_memset_t CYCODE cfg_memset_list [] = {
 399:.\Generated_Source\PSoC4/cyfitter_cfg.c **** 			/* address, size */
 400:.\Generated_Source\PSoC4/cyfitter_cfg.c **** 			{(void CYFAR *)(CYDEV_UDB_P0_U0_BASE), 1024u},
 401:.\Generated_Source\PSoC4/cyfitter_cfg.c **** 			{(void CYFAR *)(CYDEV_UDB_DSI0_BASE), 1024u},
 402:.\Generated_Source\PSoC4/cyfitter_cfg.c **** 		};
 403:.\Generated_Source\PSoC4/cyfitter_cfg.c **** 
 404:.\Generated_Source\PSoC4/cyfitter_cfg.c **** 		uint8 CYDATA i;
 405:.\Generated_Source\PSoC4/cyfitter_cfg.c **** 
 406:.\Generated_Source\PSoC4/cyfitter_cfg.c **** 		/* Zero out critical memory blocks before beginning configuration */
 407:.\Generated_Source\PSoC4/cyfitter_cfg.c **** 		for (i = 0u; i < (sizeof(cfg_memset_list)/sizeof(cfg_memset_list[0])); i++)
 414              		.loc 1 407 0
 415 007c 0024     		mov	r4, #0
 416 007e 10E0     		b	.L33
 417              	.LVL27:
 418              	.L34:
 419              	.LBB4:
 408:.\Generated_Source\PSoC4/cyfitter_cfg.c **** 		{
 409:.\Generated_Source\PSoC4/cyfitter_cfg.c **** 			const cfg_memset_t CYCODE * CYDATA ms = &cfg_memset_list[i];
 410:.\Generated_Source\PSoC4/cyfitter_cfg.c **** 			CYMEMZERO(ms->address, (size_t)(uint32)(ms->size));
 420              		.loc 1 410 0 discriminator 3
 421 0080 2A48     		ldr	r0, .L35
 422 0082 6300     		lsl	r3, r4, #1
 423 0084 1A19     		add	r2, r3, r4
 424 0086 5200     		lsl	r2, r2, #1
 425 0088 8218     		add	r2, r0, r2
 426 008a 9188     		ldrh	r1, [r2, #4]
 427 008c 1B19     		add	r3, r3, r4
 428 008e 5B00     		lsl	r3, r3, #1
 429 0090 1A5A     		ldrh	r2, [r3, r0]
 430 0092 C318     		add	r3, r0, r3
 431 0094 5888     		ldrh	r0, [r3, #2]
 432 0096 0004     		lsl	r0, r0, #16
 433 0098 1043     		orr	r0, r2
 434 009a FFF7FEFF 		bl	CYMEMZERO
ARM GAS  C:\Users\Svilen\AppData\Local\Temp\ccowxtJU.s 			page 16


 435              	.LVL28:
 436              	.LBE4:
 407:.\Generated_Source\PSoC4/cyfitter_cfg.c **** 		{
 437              		.loc 1 407 0 discriminator 3
 438 009e 0134     		add	r4, r4, #1
 439              	.LVL29:
 440 00a0 E4B2     		uxtb	r4, r4
 441              	.LVL30:
 442              	.L33:
 407:.\Generated_Source\PSoC4/cyfitter_cfg.c **** 		{
 443              		.loc 1 407 0 is_stmt 0 discriminator 1
 444 00a2 012C     		cmp	r4, #1
 445 00a4 ECD9     		bls	.L34
 411:.\Generated_Source\PSoC4/cyfitter_cfg.c **** 		}
 412:.\Generated_Source\PSoC4/cyfitter_cfg.c **** 
 413:.\Generated_Source\PSoC4/cyfitter_cfg.c **** 		cfg_write_bytes32(cy_cfg_addr_table, cy_cfg_data_table);
 446              		.loc 1 413 0 is_stmt 1
 447 00a6 2149     		ldr	r1, .L35
 448 00a8 081C     		mov	r0, r1
 449 00aa 0C30     		add	r0, r0, #12
 450 00ac 2031     		add	r1, r1, #32
 451 00ae FFF7FEFF 		bl	cfg_write_bytes32
 452              	.LVL31:
 414:.\Generated_Source\PSoC4/cyfitter_cfg.c **** 
 415:.\Generated_Source\PSoC4/cyfitter_cfg.c **** 		/* HSIOM Starting address: CYDEV_HSIOM_BASE */
 416:.\Generated_Source\PSoC4/cyfitter_cfg.c **** 		CY_SET_XTND_REG32((void CYFAR *)(CYREG_HSIOM_PORT_SEL3), 0x0070EE00u);
 453              		.loc 1 416 0
 454 00b2 1F4A     		ldr	r2, .L35+4
 455 00b4 1F4B     		ldr	r3, .L35+8
 456 00b6 1A60     		str	r2, [r3]
 417:.\Generated_Source\PSoC4/cyfitter_cfg.c **** 
 418:.\Generated_Source\PSoC4/cyfitter_cfg.c **** 		/* UDB_PA_0 Starting address: CYDEV_UDB_PA0_BASE */
 419:.\Generated_Source\PSoC4/cyfitter_cfg.c **** 		CY_SET_XTND_REG32((void CYFAR *)(CYDEV_UDB_PA0_BASE), 0x00990000u);
 457              		.loc 1 419 0
 458 00b8 9923     		mov	r3, #153
 459 00ba 1B04     		lsl	r3, r3, #16
 460 00bc 1E4A     		ldr	r2, .L35+12
 461 00be 1360     		str	r3, [r2]
 420:.\Generated_Source\PSoC4/cyfitter_cfg.c **** 
 421:.\Generated_Source\PSoC4/cyfitter_cfg.c **** 		/* UDB_PA_1 Starting address: CYDEV_UDB_PA1_BASE */
 422:.\Generated_Source\PSoC4/cyfitter_cfg.c **** 		CY_SET_XTND_REG32((void CYFAR *)(CYDEV_UDB_PA1_BASE), 0x00990000u);
 462              		.loc 1 422 0
 463 00c0 1E4A     		ldr	r2, .L35+16
 464 00c2 1360     		str	r3, [r2]
 423:.\Generated_Source\PSoC4/cyfitter_cfg.c **** 
 424:.\Generated_Source\PSoC4/cyfitter_cfg.c **** 		/* UDB_PA_2 Starting address: CYDEV_UDB_PA2_BASE */
 425:.\Generated_Source\PSoC4/cyfitter_cfg.c **** 		CY_SET_XTND_REG32((void CYFAR *)(CYDEV_UDB_PA2_BASE), 0x00990000u);
 465              		.loc 1 425 0
 466 00c4 1E4A     		ldr	r2, .L35+20
 467 00c6 1360     		str	r3, [r2]
 426:.\Generated_Source\PSoC4/cyfitter_cfg.c **** 
 427:.\Generated_Source\PSoC4/cyfitter_cfg.c **** 		/* UDB_PA_3 Starting address: CYDEV_UDB_PA3_BASE */
 428:.\Generated_Source\PSoC4/cyfitter_cfg.c **** 		CY_SET_XTND_REG32((void CYFAR *)(CYDEV_UDB_PA3_BASE), 0x00990000u);
 468              		.loc 1 428 0
 469 00c8 1E4A     		ldr	r2, .L35+24
 470 00ca 1360     		str	r3, [r2]
 429:.\Generated_Source\PSoC4/cyfitter_cfg.c **** 		CY_SET_XTND_REG32((void CYFAR *)(CYREG_UDB_PA3_CFG8), 0x0A0F0000u);
ARM GAS  C:\Users\Svilen\AppData\Local\Temp\ccowxtJU.s 			page 17


 471              		.loc 1 429 0
 472 00cc 1E4A     		ldr	r2, .L35+28
 473 00ce 1F4B     		ldr	r3, .L35+32
 474 00d0 1A60     		str	r2, [r3]
 430:.\Generated_Source\PSoC4/cyfitter_cfg.c **** 
 431:.\Generated_Source\PSoC4/cyfitter_cfg.c **** 		/* Enable digital routing */
 432:.\Generated_Source\PSoC4/cyfitter_cfg.c **** 		CY_SET_XTND_REG8((void *)CYREG_UDB_UDBIF_BANK_CTL, CY_GET_XTND_REG8((void *)CYREG_UDB_UDBIF_BANK_
 475              		.loc 1 432 0
 476 00d2 1F4B     		ldr	r3, .L35+36
 477 00d4 1978     		ldrb	r1, [r3]
 478 00d6 0222     		mov	r2, #2
 479 00d8 0A43     		orr	r2, r1
 480 00da 1A70     		strb	r2, [r3]
 433:.\Generated_Source\PSoC4/cyfitter_cfg.c **** 
 434:.\Generated_Source\PSoC4/cyfitter_cfg.c **** 		/* Enable UDB array */
 435:.\Generated_Source\PSoC4/cyfitter_cfg.c **** 		CY_SET_XTND_REG8((void *)CYREG_UDB_UDBIF_WAIT_CFG, (uint8)((CY_GET_XTND_REG8((void *)CYREG_UDB_UD
 481              		.loc 1 435 0
 482 00dc 1D48     		ldr	r0, .L35+40
 483 00de 0278     		ldrb	r2, [r0]
 484 00e0 3C21     		mov	r1, #60
 485 00e2 8A43     		bic	r2, r1
 486 00e4 2839     		sub	r1, r1, #40
 487 00e6 0A43     		orr	r2, r1
 488 00e8 0270     		strb	r2, [r0]
 436:.\Generated_Source\PSoC4/cyfitter_cfg.c **** 		CY_SET_XTND_REG8((void *)CYREG_UDB_UDBIF_BANK_CTL, (uint8)(CY_GET_XTND_REG8((void *)CYREG_UDB_UDB
 489              		.loc 1 436 0
 490 00ea 1978     		ldrb	r1, [r3]
 491 00ec 1622     		mov	r2, #22
 492 00ee 0A43     		orr	r2, r1
 493 00f0 1A70     		strb	r2, [r3]
 494              	.LBE3:
 437:.\Generated_Source\PSoC4/cyfitter_cfg.c **** 	}
 438:.\Generated_Source\PSoC4/cyfitter_cfg.c **** 
 439:.\Generated_Source\PSoC4/cyfitter_cfg.c **** 	/* Perform second pass device configuration. These items must be configured in specific order afte
 440:.\Generated_Source\PSoC4/cyfitter_cfg.c **** 	/* IOPINS0_0 Starting address: CYDEV_PRT0_BASE */
 441:.\Generated_Source\PSoC4/cyfitter_cfg.c **** 	CY_SET_XTND_REG32((void CYFAR *)(CYREG_PRT0_PC), 0x001B6DB6u);
 495              		.loc 1 441 0
 496 00f2 194A     		ldr	r2, .L35+44
 497 00f4 194B     		ldr	r3, .L35+48
 498 00f6 1A60     		str	r2, [r3]
 442:.\Generated_Source\PSoC4/cyfitter_cfg.c **** 
 443:.\Generated_Source\PSoC4/cyfitter_cfg.c **** 	/* IOPINS0_1 Starting address: CYDEV_PRT1_BASE */
 444:.\Generated_Source\PSoC4/cyfitter_cfg.c **** 	CY_SET_XTND_REG32((void CYFAR *)(CYDEV_PRT1_BASE), 0x00000007u);
 499              		.loc 1 444 0
 500 00f8 0722     		mov	r2, #7
 501 00fa 194B     		ldr	r3, .L35+52
 502 00fc 1A60     		str	r2, [r3]
 445:.\Generated_Source\PSoC4/cyfitter_cfg.c **** 	CY_SET_XTND_REG32((void CYFAR *)(CYREG_PRT1_PC), 0x00000092u);
 503              		.loc 1 445 0
 504 00fe 8B32     		add	r2, r2, #139
 505 0100 184B     		ldr	r3, .L35+56
 506 0102 1A60     		str	r2, [r3]
 446:.\Generated_Source\PSoC4/cyfitter_cfg.c **** 	CY_SET_XTND_REG32((void CYFAR *)(CYREG_PRT1_INTCFG), 0x0000002Bu);
 507              		.loc 1 446 0
 508 0104 673A     		sub	r2, r2, #103
 509 0106 184B     		ldr	r3, .L35+60
 510 0108 1A60     		str	r2, [r3]
ARM GAS  C:\Users\Svilen\AppData\Local\Temp\ccowxtJU.s 			page 18


 447:.\Generated_Source\PSoC4/cyfitter_cfg.c **** 
 448:.\Generated_Source\PSoC4/cyfitter_cfg.c **** 	/* IOPINS0_2 Starting address: CYDEV_PRT2_BASE */
 449:.\Generated_Source\PSoC4/cyfitter_cfg.c **** 	CY_SET_XTND_REG32((void CYFAR *)(CYREG_PRT2_PC), 0x00DB6DB6u);
 511              		.loc 1 449 0
 512 010a 184A     		ldr	r2, .L35+64
 513 010c 184B     		ldr	r3, .L35+68
 514 010e 1A60     		str	r2, [r3]
 450:.\Generated_Source\PSoC4/cyfitter_cfg.c **** 
 451:.\Generated_Source\PSoC4/cyfitter_cfg.c **** 	/* IOPINS0_3 Starting address: CYDEV_PRT3_BASE */
 452:.\Generated_Source\PSoC4/cyfitter_cfg.c **** 	CY_SET_XTND_REG32((void CYFAR *)(CYDEV_PRT3_BASE), 0x00000033u);
 515              		.loc 1 452 0
 516 0110 3323     		mov	r3, #51
 517 0112 184A     		ldr	r2, .L35+72
 518 0114 1360     		str	r3, [r2]
 453:.\Generated_Source\PSoC4/cyfitter_cfg.c **** 	CY_SET_XTND_REG32((void CYFAR *)(CYREG_PRT3_PC), 0x00000D80u);
 519              		.loc 1 453 0
 520 0116 D821     		mov	r1, #216
 521 0118 0901     		lsl	r1, r1, #4
 522 011a 174A     		ldr	r2, .L35+76
 523 011c 1160     		str	r1, [r2]
 454:.\Generated_Source\PSoC4/cyfitter_cfg.c **** 	CY_SET_XTND_REG32((void CYFAR *)(CYREG_PRT3_PC2), 0x00000033u);
 524              		.loc 1 454 0
 525 011e 174A     		ldr	r2, .L35+80
 526 0120 1360     		str	r3, [r2]
 455:.\Generated_Source\PSoC4/cyfitter_cfg.c **** 
 456:.\Generated_Source\PSoC4/cyfitter_cfg.c **** 
 457:.\Generated_Source\PSoC4/cyfitter_cfg.c **** 	/* Setup clocks based on selections from Clock DWR */
 458:.\Generated_Source\PSoC4/cyfitter_cfg.c **** 	ClockSetup();
 527              		.loc 1 458 0
 528 0122 FFF76DFF 		bl	ClockSetup
 529              	.LVL32:
 459:.\Generated_Source\PSoC4/cyfitter_cfg.c **** 
 460:.\Generated_Source\PSoC4/cyfitter_cfg.c **** 	/* Perform basic analog initialization to defaults */
 461:.\Generated_Source\PSoC4/cyfitter_cfg.c **** 	AnalogSetDefault();
 530              		.loc 1 461 0
 531 0126 FFF7FEFF 		bl	AnalogSetDefault
 532              	.LVL33:
 462:.\Generated_Source\PSoC4/cyfitter_cfg.c **** 
 463:.\Generated_Source\PSoC4/cyfitter_cfg.c **** }
 533              		.loc 1 463 0
 534              		@ sp needed
 535              	.LVL34:
 536 012a 10BD     		pop	{r4, pc}
 537              	.L36:
 538              		.align	2
 539              	.L35:
 540 012c 00000000 		.word	.LANCHOR0
 541 0130 00EE7000 		.word	7400960
 542 0134 0C000140 		.word	1073807372
 543 0138 00500F40 		.word	1074745344
 544 013c 10500F40 		.word	1074745360
 545 0140 20500F40 		.word	1074745376
 546 0144 30500F40 		.word	1074745392
 547 0148 00000F0A 		.word	168755200
 548 014c 38500F40 		.word	1074745400
 549 0150 00700F40 		.word	1074753536
 550 0154 01700F40 		.word	1074753537
ARM GAS  C:\Users\Svilen\AppData\Local\Temp\ccowxtJU.s 			page 19


 551 0158 B66D1B00 		.word	1797558
 552 015c 08000440 		.word	1074003976
 553 0160 00010440 		.word	1074004224
 554 0164 08010440 		.word	1074004232
 555 0168 0C010440 		.word	1074004236
 556 016c B66DDB00 		.word	14380470
 557 0170 08020440 		.word	1074004488
 558 0174 00030440 		.word	1074004736
 559 0178 08030440 		.word	1074004744
 560 017c 18030440 		.word	1074004760
 561              		.cfi_endproc
 562              	.LFE9:
 563              		.size	cyfitter_cfg, .-cyfitter_cfg
 564              		.section	.rodata
 565              		.align	2
 566              		.set	.LANCHOR0,. + 0
 567              		.type	cfg_memset_list.4772, %object
 568              		.size	cfg_memset_list.4772, 12
 569              	cfg_memset_list.4772:
 570 0000 00300F40 		.word	1074737152
 571 0004 0004     		.short	1024
 572 0006 00400F40 		.4byte	1074741248
 573 000a 0004     		.short	1024
 574              		.type	cy_cfg_addr_table.4766, %object
 575              		.size	cy_cfg_addr_table.4766, 20
 576              	cy_cfg_addr_table.4766:
 577 000c 04300F40 		.word	1074737156
 578 0010 01310F40 		.word	1074737409
 579 0014 01330F40 		.word	1074737921
 580 0018 02420F40 		.word	1074741762
 581 001c 09430F40 		.word	1074742025
 582              		.type	cy_cfg_data_table.4767, %object
 583              		.size	cy_cfg_data_table.4767, 34
 584              	cy_cfg_data_table.4767:
 585 0020 38       		.byte	56
 586 0021 A0       		.byte	-96
 587 0022 3E       		.byte	62
 588 0023 50       		.byte	80
 589 0024 58       		.byte	88
 590 0025 04       		.byte	4
 591 0026 5F       		.byte	95
 592 0027 01       		.byte	1
 593 0028 18       		.byte	24
 594 0029 05       		.byte	5
 595 002a B4       		.byte	-76
 596 002b 05       		.byte	5
 597 002c 6C       		.byte	108
 598 002d 40       		.byte	64
 599 002e DC       		.byte	-36
 600 002f 02       		.byte	2
 601 0030 54       		.byte	84
 602 0031 02       		.byte	2
 603 0032 61       		.byte	97
 604 0033 02       		.byte	2
 605 0034 A0       		.byte	-96
 606 0035 02       		.byte	2
 607 0036 A1       		.byte	-95
ARM GAS  C:\Users\Svilen\AppData\Local\Temp\ccowxtJU.s 			page 20


 608 0037 02       		.byte	2
 609 0038 B4       		.byte	-76
 610 0039 42       		.byte	66
 611 003a B5       		.byte	-75
 612 003b 02       		.byte	2
 613 003c D6       		.byte	-42
 614 003d 04       		.byte	4
 615 003e D8       		.byte	-40
 616 003f 02       		.byte	2
 617 0040 EC       		.byte	-20
 618 0041 0A       		.byte	10
 619 0042 0000     		.text
 620              	.Letext0:
 621              		.file 2 "c:\\program files (x86)\\cypress\\psoc creator\\3.3\\psoc creator\\import\\gnu\\arm\\4.9.
 622              		.file 3 ".\\Generated_Source\\PSoC4\\cytypes.h"
 623              		.file 4 ".\\Generated_Source\\PSoC4\\CyLib.h"